ARM GAS  C:\Users\JACOB-~1\AppData\Local\Temp\cc2yXWU7.s 			page 1


   1              		.syntax unified
   2              		.cpu cortex-m3
   3              		.fpu softvfp
   4              		.eabi_attribute 20, 1
   5              		.eabi_attribute 21, 1
   6              		.eabi_attribute 23, 3
   7              		.eabi_attribute 24, 1
   8              		.eabi_attribute 25, 1
   9              		.eabi_attribute 26, 1
  10              		.eabi_attribute 30, 1
  11              		.eabi_attribute 34, 1
  12              		.eabi_attribute 18, 4
  13              		.thumb
  14              		.syntax unified
  15              		.file	"isr_start_backward.c"
  16              		.text
  17              	.Ltext0:
  18              		.cfi_sections	.debug_frame
  19              		.section	.text.isr_start_backward_Interrupt,"ax",%progbits
  20              		.align	2
  21              		.global	isr_start_backward_Interrupt
  22              		.thumb
  23              		.thumb_func
  24              		.type	isr_start_backward_Interrupt, %function
  25              	isr_start_backward_Interrupt:
  26              	.LFB3:
  27              		.file 1 "Generated_Source\\PSoC5\\isr_start_backward.c"
   1:Generated_Source\PSoC5/isr_start_backward.c **** /*******************************************************************************
   2:Generated_Source\PSoC5/isr_start_backward.c **** * File Name: isr_start_backward.c  
   3:Generated_Source\PSoC5/isr_start_backward.c **** * Version 1.70
   4:Generated_Source\PSoC5/isr_start_backward.c **** *
   5:Generated_Source\PSoC5/isr_start_backward.c **** *  Description:
   6:Generated_Source\PSoC5/isr_start_backward.c **** *   API for controlling the state of an interrupt.
   7:Generated_Source\PSoC5/isr_start_backward.c **** *
   8:Generated_Source\PSoC5/isr_start_backward.c **** *
   9:Generated_Source\PSoC5/isr_start_backward.c **** *  Note:
  10:Generated_Source\PSoC5/isr_start_backward.c **** *
  11:Generated_Source\PSoC5/isr_start_backward.c **** ********************************************************************************
  12:Generated_Source\PSoC5/isr_start_backward.c **** * Copyright 2008-2015, Cypress Semiconductor Corporation.  All rights reserved.
  13:Generated_Source\PSoC5/isr_start_backward.c **** * You may use this file only in accordance with the license, terms, conditions, 
  14:Generated_Source\PSoC5/isr_start_backward.c **** * disclaimers, and limitations in the end user license agreement accompanying 
  15:Generated_Source\PSoC5/isr_start_backward.c **** * the software package with which this file was provided.
  16:Generated_Source\PSoC5/isr_start_backward.c **** *******************************************************************************/
  17:Generated_Source\PSoC5/isr_start_backward.c **** 
  18:Generated_Source\PSoC5/isr_start_backward.c **** 
  19:Generated_Source\PSoC5/isr_start_backward.c **** #include <cydevice_trm.h>
  20:Generated_Source\PSoC5/isr_start_backward.c **** #include <CyLib.h>
  21:Generated_Source\PSoC5/isr_start_backward.c **** #include <isr_start_backward.h>
  22:Generated_Source\PSoC5/isr_start_backward.c **** #include "cyapicallbacks.h"
  23:Generated_Source\PSoC5/isr_start_backward.c **** 
  24:Generated_Source\PSoC5/isr_start_backward.c **** #if !defined(isr_start_backward__REMOVED) /* Check for removal by optimization */
  25:Generated_Source\PSoC5/isr_start_backward.c **** 
  26:Generated_Source\PSoC5/isr_start_backward.c **** /*******************************************************************************
  27:Generated_Source\PSoC5/isr_start_backward.c **** *  Place your includes, defines and code here 
  28:Generated_Source\PSoC5/isr_start_backward.c **** ********************************************************************************/
  29:Generated_Source\PSoC5/isr_start_backward.c **** /* `#START isr_start_backward_intc` */
  30:Generated_Source\PSoC5/isr_start_backward.c ****     #include <Pin_DC_Motor.h>
ARM GAS  C:\Users\JACOB-~1\AppData\Local\Temp\cc2yXWU7.s 			page 2


  31:Generated_Source\PSoC5/isr_start_backward.c ****     #include <isr_func.h>
  32:Generated_Source\PSoC5/isr_start_backward.c **** /* `#END` */
  33:Generated_Source\PSoC5/isr_start_backward.c **** 
  34:Generated_Source\PSoC5/isr_start_backward.c **** #ifndef CYINT_IRQ_BASE
  35:Generated_Source\PSoC5/isr_start_backward.c **** #define CYINT_IRQ_BASE      16
  36:Generated_Source\PSoC5/isr_start_backward.c **** #endif /* CYINT_IRQ_BASE */
  37:Generated_Source\PSoC5/isr_start_backward.c **** #ifndef CYINT_VECT_TABLE
  38:Generated_Source\PSoC5/isr_start_backward.c **** #define CYINT_VECT_TABLE    ((cyisraddress **) CYREG_NVIC_VECT_OFFSET)
  39:Generated_Source\PSoC5/isr_start_backward.c **** #endif /* CYINT_VECT_TABLE */
  40:Generated_Source\PSoC5/isr_start_backward.c **** 
  41:Generated_Source\PSoC5/isr_start_backward.c **** /* Declared in startup, used to set unused interrupts to. */
  42:Generated_Source\PSoC5/isr_start_backward.c **** CY_ISR_PROTO(IntDefaultHandler);
  43:Generated_Source\PSoC5/isr_start_backward.c **** 
  44:Generated_Source\PSoC5/isr_start_backward.c **** 
  45:Generated_Source\PSoC5/isr_start_backward.c **** /*******************************************************************************
  46:Generated_Source\PSoC5/isr_start_backward.c **** * Function Name: isr_start_backward_Start
  47:Generated_Source\PSoC5/isr_start_backward.c **** ********************************************************************************
  48:Generated_Source\PSoC5/isr_start_backward.c **** *
  49:Generated_Source\PSoC5/isr_start_backward.c **** * Summary:
  50:Generated_Source\PSoC5/isr_start_backward.c **** *  Set up the interrupt and enable it. This function disables the interrupt, 
  51:Generated_Source\PSoC5/isr_start_backward.c **** *  sets the default interrupt vector, sets the priority from the value in the
  52:Generated_Source\PSoC5/isr_start_backward.c **** *  Design Wide Resources Interrupt Editor, then enables the interrupt to the 
  53:Generated_Source\PSoC5/isr_start_backward.c **** *  interrupt controller.
  54:Generated_Source\PSoC5/isr_start_backward.c **** *
  55:Generated_Source\PSoC5/isr_start_backward.c **** * Parameters:  
  56:Generated_Source\PSoC5/isr_start_backward.c **** *   None
  57:Generated_Source\PSoC5/isr_start_backward.c **** *
  58:Generated_Source\PSoC5/isr_start_backward.c **** * Return:
  59:Generated_Source\PSoC5/isr_start_backward.c **** *   None
  60:Generated_Source\PSoC5/isr_start_backward.c **** *
  61:Generated_Source\PSoC5/isr_start_backward.c **** *******************************************************************************/
  62:Generated_Source\PSoC5/isr_start_backward.c **** void isr_start_backward_Start(void)
  63:Generated_Source\PSoC5/isr_start_backward.c **** {
  64:Generated_Source\PSoC5/isr_start_backward.c ****     /* For all we know the interrupt is active. */
  65:Generated_Source\PSoC5/isr_start_backward.c ****     isr_start_backward_Disable();
  66:Generated_Source\PSoC5/isr_start_backward.c **** 
  67:Generated_Source\PSoC5/isr_start_backward.c ****     /* Set the ISR to point to the isr_start_backward Interrupt. */
  68:Generated_Source\PSoC5/isr_start_backward.c ****     isr_start_backward_SetVector(&isr_start_backward_Interrupt);
  69:Generated_Source\PSoC5/isr_start_backward.c **** 
  70:Generated_Source\PSoC5/isr_start_backward.c ****     /* Set the priority. */
  71:Generated_Source\PSoC5/isr_start_backward.c ****     isr_start_backward_SetPriority((uint8)isr_start_backward_INTC_PRIOR_NUMBER);
  72:Generated_Source\PSoC5/isr_start_backward.c **** 
  73:Generated_Source\PSoC5/isr_start_backward.c ****     /* Enable it. */
  74:Generated_Source\PSoC5/isr_start_backward.c ****     isr_start_backward_Enable();
  75:Generated_Source\PSoC5/isr_start_backward.c **** }
  76:Generated_Source\PSoC5/isr_start_backward.c **** 
  77:Generated_Source\PSoC5/isr_start_backward.c **** 
  78:Generated_Source\PSoC5/isr_start_backward.c **** /*******************************************************************************
  79:Generated_Source\PSoC5/isr_start_backward.c **** * Function Name: isr_start_backward_StartEx
  80:Generated_Source\PSoC5/isr_start_backward.c **** ********************************************************************************
  81:Generated_Source\PSoC5/isr_start_backward.c **** *
  82:Generated_Source\PSoC5/isr_start_backward.c **** * Summary:
  83:Generated_Source\PSoC5/isr_start_backward.c **** *  Sets up the interrupt and enables it. This function disables the interrupt,
  84:Generated_Source\PSoC5/isr_start_backward.c **** *  sets the interrupt vector based on the address passed in, sets the priority 
  85:Generated_Source\PSoC5/isr_start_backward.c **** *  from the value in the Design Wide Resources Interrupt Editor, then enables 
  86:Generated_Source\PSoC5/isr_start_backward.c **** *  the interrupt to the interrupt controller.
  87:Generated_Source\PSoC5/isr_start_backward.c **** *  
ARM GAS  C:\Users\JACOB-~1\AppData\Local\Temp\cc2yXWU7.s 			page 3


  88:Generated_Source\PSoC5/isr_start_backward.c **** *  When defining ISR functions, the CY_ISR and CY_ISR_PROTO macros should be 
  89:Generated_Source\PSoC5/isr_start_backward.c **** *  used to provide consistent definition across compilers:
  90:Generated_Source\PSoC5/isr_start_backward.c **** *  
  91:Generated_Source\PSoC5/isr_start_backward.c **** *  Function definition example:
  92:Generated_Source\PSoC5/isr_start_backward.c **** *   CY_ISR(MyISR)
  93:Generated_Source\PSoC5/isr_start_backward.c **** *   {
  94:Generated_Source\PSoC5/isr_start_backward.c **** *   }
  95:Generated_Source\PSoC5/isr_start_backward.c **** *   Function prototype example:
  96:Generated_Source\PSoC5/isr_start_backward.c **** *   CY_ISR_PROTO(MyISR);
  97:Generated_Source\PSoC5/isr_start_backward.c **** *
  98:Generated_Source\PSoC5/isr_start_backward.c **** * Parameters:  
  99:Generated_Source\PSoC5/isr_start_backward.c **** *   address: Address of the ISR to set in the interrupt vector table.
 100:Generated_Source\PSoC5/isr_start_backward.c **** *
 101:Generated_Source\PSoC5/isr_start_backward.c **** * Return:
 102:Generated_Source\PSoC5/isr_start_backward.c **** *   None
 103:Generated_Source\PSoC5/isr_start_backward.c **** *
 104:Generated_Source\PSoC5/isr_start_backward.c **** *******************************************************************************/
 105:Generated_Source\PSoC5/isr_start_backward.c **** void isr_start_backward_StartEx(cyisraddress address)
 106:Generated_Source\PSoC5/isr_start_backward.c **** {
 107:Generated_Source\PSoC5/isr_start_backward.c ****     /* For all we know the interrupt is active. */
 108:Generated_Source\PSoC5/isr_start_backward.c ****     isr_start_backward_Disable();
 109:Generated_Source\PSoC5/isr_start_backward.c **** 
 110:Generated_Source\PSoC5/isr_start_backward.c ****     /* Set the ISR to point to the isr_start_backward Interrupt. */
 111:Generated_Source\PSoC5/isr_start_backward.c ****     isr_start_backward_SetVector(address);
 112:Generated_Source\PSoC5/isr_start_backward.c **** 
 113:Generated_Source\PSoC5/isr_start_backward.c ****     /* Set the priority. */
 114:Generated_Source\PSoC5/isr_start_backward.c ****     isr_start_backward_SetPriority((uint8)isr_start_backward_INTC_PRIOR_NUMBER);
 115:Generated_Source\PSoC5/isr_start_backward.c **** 
 116:Generated_Source\PSoC5/isr_start_backward.c ****     /* Enable it. */
 117:Generated_Source\PSoC5/isr_start_backward.c ****     isr_start_backward_Enable();
 118:Generated_Source\PSoC5/isr_start_backward.c **** }
 119:Generated_Source\PSoC5/isr_start_backward.c **** 
 120:Generated_Source\PSoC5/isr_start_backward.c **** 
 121:Generated_Source\PSoC5/isr_start_backward.c **** /*******************************************************************************
 122:Generated_Source\PSoC5/isr_start_backward.c **** * Function Name: isr_start_backward_Stop
 123:Generated_Source\PSoC5/isr_start_backward.c **** ********************************************************************************
 124:Generated_Source\PSoC5/isr_start_backward.c **** *
 125:Generated_Source\PSoC5/isr_start_backward.c **** * Summary:
 126:Generated_Source\PSoC5/isr_start_backward.c **** *   Disables and removes the interrupt.
 127:Generated_Source\PSoC5/isr_start_backward.c **** *
 128:Generated_Source\PSoC5/isr_start_backward.c **** * Parameters:  
 129:Generated_Source\PSoC5/isr_start_backward.c **** *   None
 130:Generated_Source\PSoC5/isr_start_backward.c **** *
 131:Generated_Source\PSoC5/isr_start_backward.c **** * Return:
 132:Generated_Source\PSoC5/isr_start_backward.c **** *   None
 133:Generated_Source\PSoC5/isr_start_backward.c **** *
 134:Generated_Source\PSoC5/isr_start_backward.c **** *******************************************************************************/
 135:Generated_Source\PSoC5/isr_start_backward.c **** void isr_start_backward_Stop(void)
 136:Generated_Source\PSoC5/isr_start_backward.c **** {
 137:Generated_Source\PSoC5/isr_start_backward.c ****     /* Disable this interrupt. */
 138:Generated_Source\PSoC5/isr_start_backward.c ****     isr_start_backward_Disable();
 139:Generated_Source\PSoC5/isr_start_backward.c **** 
 140:Generated_Source\PSoC5/isr_start_backward.c ****     /* Set the ISR to point to the passive one. */
 141:Generated_Source\PSoC5/isr_start_backward.c ****     isr_start_backward_SetVector(&IntDefaultHandler);
 142:Generated_Source\PSoC5/isr_start_backward.c **** }
 143:Generated_Source\PSoC5/isr_start_backward.c **** 
 144:Generated_Source\PSoC5/isr_start_backward.c **** 
ARM GAS  C:\Users\JACOB-~1\AppData\Local\Temp\cc2yXWU7.s 			page 4


 145:Generated_Source\PSoC5/isr_start_backward.c **** /*******************************************************************************
 146:Generated_Source\PSoC5/isr_start_backward.c **** * Function Name: isr_start_backward_Interrupt
 147:Generated_Source\PSoC5/isr_start_backward.c **** ********************************************************************************
 148:Generated_Source\PSoC5/isr_start_backward.c **** *
 149:Generated_Source\PSoC5/isr_start_backward.c **** * Summary:
 150:Generated_Source\PSoC5/isr_start_backward.c **** *   The default Interrupt Service Routine for isr_start_backward.
 151:Generated_Source\PSoC5/isr_start_backward.c **** *
 152:Generated_Source\PSoC5/isr_start_backward.c **** *   Add custom code between the coments to keep the next version of this file
 153:Generated_Source\PSoC5/isr_start_backward.c **** *   from over writting your code.
 154:Generated_Source\PSoC5/isr_start_backward.c **** *
 155:Generated_Source\PSoC5/isr_start_backward.c **** * Parameters:  
 156:Generated_Source\PSoC5/isr_start_backward.c **** *
 157:Generated_Source\PSoC5/isr_start_backward.c **** * Return:
 158:Generated_Source\PSoC5/isr_start_backward.c **** *   None
 159:Generated_Source\PSoC5/isr_start_backward.c **** *
 160:Generated_Source\PSoC5/isr_start_backward.c **** *******************************************************************************/
 161:Generated_Source\PSoC5/isr_start_backward.c **** CY_ISR(isr_start_backward_Interrupt)
 162:Generated_Source\PSoC5/isr_start_backward.c **** {
  28              		.loc 1 162 0
  29              		.cfi_startproc
  30              		@ args = 0, pretend = 0, frame = 0
  31              		@ frame_needed = 0, uses_anonymous_args = 0
  32 0000 08B5     		push	{r3, lr}
  33              		.cfi_def_cfa_offset 8
  34              		.cfi_offset 3, -8
  35              		.cfi_offset 14, -4
 163:Generated_Source\PSoC5/isr_start_backward.c ****     #ifdef isr_start_backward_INTERRUPT_INTERRUPT_CALLBACK
 164:Generated_Source\PSoC5/isr_start_backward.c ****         isr_start_backward_Interrupt_InterruptCallback();
 165:Generated_Source\PSoC5/isr_start_backward.c ****     #endif /* isr_start_backward_INTERRUPT_INTERRUPT_CALLBACK */ 
 166:Generated_Source\PSoC5/isr_start_backward.c **** 
 167:Generated_Source\PSoC5/isr_start_backward.c ****     /*  Place your Interrupt code here. */
 168:Generated_Source\PSoC5/isr_start_backward.c ****     /* `#START isr_start_backward_Interrupt` */
 169:Generated_Source\PSoC5/isr_start_backward.c ****     CyDelay(100);
  36              		.loc 1 169 0
  37 0002 6420     		movs	r0, #100
  38 0004 FFF7FEFF 		bl	CyDelay
  39              	.LVL0:
 170:Generated_Source\PSoC5/isr_start_backward.c ****     start_motor_backward();
  40              		.loc 1 170 0
  41 0008 FFF7FEFF 		bl	start_motor_backward
  42              	.LVL1:
  43 000c 08BD     		pop	{r3, pc}
  44              		.cfi_endproc
  45              	.LFE3:
  46              		.size	isr_start_backward_Interrupt, .-isr_start_backward_Interrupt
  47 000e 00BF     		.section	.text.isr_start_backward_SetVector,"ax",%progbits
  48              		.align	2
  49              		.global	isr_start_backward_SetVector
  50              		.thumb
  51              		.thumb_func
  52              		.type	isr_start_backward_SetVector, %function
  53              	isr_start_backward_SetVector:
  54              	.LFB4:
 171:Generated_Source\PSoC5/isr_start_backward.c ****     /* `#END` */
 172:Generated_Source\PSoC5/isr_start_backward.c **** }
 173:Generated_Source\PSoC5/isr_start_backward.c **** 
 174:Generated_Source\PSoC5/isr_start_backward.c **** 
ARM GAS  C:\Users\JACOB-~1\AppData\Local\Temp\cc2yXWU7.s 			page 5


 175:Generated_Source\PSoC5/isr_start_backward.c **** /*******************************************************************************
 176:Generated_Source\PSoC5/isr_start_backward.c **** * Function Name: isr_start_backward_SetVector
 177:Generated_Source\PSoC5/isr_start_backward.c **** ********************************************************************************
 178:Generated_Source\PSoC5/isr_start_backward.c **** *
 179:Generated_Source\PSoC5/isr_start_backward.c **** * Summary:
 180:Generated_Source\PSoC5/isr_start_backward.c **** *   Change the ISR vector for the Interrupt. Note calling isr_start_backward_Start
 181:Generated_Source\PSoC5/isr_start_backward.c **** *   will override any effect this method would have had. To set the vector 
 182:Generated_Source\PSoC5/isr_start_backward.c **** *   before the component has been started use isr_start_backward_StartEx instead.
 183:Generated_Source\PSoC5/isr_start_backward.c **** * 
 184:Generated_Source\PSoC5/isr_start_backward.c **** *   When defining ISR functions, the CY_ISR and CY_ISR_PROTO macros should be 
 185:Generated_Source\PSoC5/isr_start_backward.c **** *   used to provide consistent definition across compilers:
 186:Generated_Source\PSoC5/isr_start_backward.c **** *
 187:Generated_Source\PSoC5/isr_start_backward.c **** *   Function definition example:
 188:Generated_Source\PSoC5/isr_start_backward.c **** *   CY_ISR(MyISR)
 189:Generated_Source\PSoC5/isr_start_backward.c **** *   {
 190:Generated_Source\PSoC5/isr_start_backward.c **** *   }
 191:Generated_Source\PSoC5/isr_start_backward.c **** *
 192:Generated_Source\PSoC5/isr_start_backward.c **** *   Function prototype example:
 193:Generated_Source\PSoC5/isr_start_backward.c **** *     CY_ISR_PROTO(MyISR);
 194:Generated_Source\PSoC5/isr_start_backward.c **** *
 195:Generated_Source\PSoC5/isr_start_backward.c **** * Parameters:
 196:Generated_Source\PSoC5/isr_start_backward.c **** *   address: Address of the ISR to set in the interrupt vector table.
 197:Generated_Source\PSoC5/isr_start_backward.c **** *
 198:Generated_Source\PSoC5/isr_start_backward.c **** * Return:
 199:Generated_Source\PSoC5/isr_start_backward.c **** *   None
 200:Generated_Source\PSoC5/isr_start_backward.c **** *
 201:Generated_Source\PSoC5/isr_start_backward.c **** *******************************************************************************/
 202:Generated_Source\PSoC5/isr_start_backward.c **** void isr_start_backward_SetVector(cyisraddress address)
 203:Generated_Source\PSoC5/isr_start_backward.c **** {
  55              		.loc 1 203 0
  56              		.cfi_startproc
  57              		@ args = 0, pretend = 0, frame = 0
  58              		@ frame_needed = 0, uses_anonymous_args = 0
  59              		@ link register save eliminated.
  60              	.LVL2:
 204:Generated_Source\PSoC5/isr_start_backward.c ****     cyisraddress * ramVectorTable;
 205:Generated_Source\PSoC5/isr_start_backward.c **** 
 206:Generated_Source\PSoC5/isr_start_backward.c ****     ramVectorTable = (cyisraddress *) *CYINT_VECT_TABLE;
  61              		.loc 1 206 0
  62 0000 014B     		ldr	r3, .L4
  63 0002 1B68     		ldr	r3, [r3]
  64              	.LVL3:
 207:Generated_Source\PSoC5/isr_start_backward.c **** 
 208:Generated_Source\PSoC5/isr_start_backward.c ****     ramVectorTable[CYINT_IRQ_BASE + (uint32)isr_start_backward__INTC_NUMBER] = address;
  65              		.loc 1 208 0
  66 0004 1864     		str	r0, [r3, #64]
  67 0006 7047     		bx	lr
  68              	.L5:
  69              		.align	2
  70              	.L4:
  71 0008 08ED00E0 		.word	-536810232
  72              		.cfi_endproc
  73              	.LFE4:
  74              		.size	isr_start_backward_SetVector, .-isr_start_backward_SetVector
  75              		.section	.text.isr_start_backward_GetVector,"ax",%progbits
  76              		.align	2
  77              		.global	isr_start_backward_GetVector
ARM GAS  C:\Users\JACOB-~1\AppData\Local\Temp\cc2yXWU7.s 			page 6


  78              		.thumb
  79              		.thumb_func
  80              		.type	isr_start_backward_GetVector, %function
  81              	isr_start_backward_GetVector:
  82              	.LFB5:
 209:Generated_Source\PSoC5/isr_start_backward.c **** }
 210:Generated_Source\PSoC5/isr_start_backward.c **** 
 211:Generated_Source\PSoC5/isr_start_backward.c **** 
 212:Generated_Source\PSoC5/isr_start_backward.c **** /*******************************************************************************
 213:Generated_Source\PSoC5/isr_start_backward.c **** * Function Name: isr_start_backward_GetVector
 214:Generated_Source\PSoC5/isr_start_backward.c **** ********************************************************************************
 215:Generated_Source\PSoC5/isr_start_backward.c **** *
 216:Generated_Source\PSoC5/isr_start_backward.c **** * Summary:
 217:Generated_Source\PSoC5/isr_start_backward.c **** *   Gets the "address" of the current ISR vector for the Interrupt.
 218:Generated_Source\PSoC5/isr_start_backward.c **** *
 219:Generated_Source\PSoC5/isr_start_backward.c **** * Parameters:
 220:Generated_Source\PSoC5/isr_start_backward.c **** *   None
 221:Generated_Source\PSoC5/isr_start_backward.c **** *
 222:Generated_Source\PSoC5/isr_start_backward.c **** * Return:
 223:Generated_Source\PSoC5/isr_start_backward.c **** *   Address of the ISR in the interrupt vector table.
 224:Generated_Source\PSoC5/isr_start_backward.c **** *
 225:Generated_Source\PSoC5/isr_start_backward.c **** *******************************************************************************/
 226:Generated_Source\PSoC5/isr_start_backward.c **** cyisraddress isr_start_backward_GetVector(void)
 227:Generated_Source\PSoC5/isr_start_backward.c **** {
  83              		.loc 1 227 0
  84              		.cfi_startproc
  85              		@ args = 0, pretend = 0, frame = 0
  86              		@ frame_needed = 0, uses_anonymous_args = 0
  87              		@ link register save eliminated.
 228:Generated_Source\PSoC5/isr_start_backward.c ****     cyisraddress * ramVectorTable;
 229:Generated_Source\PSoC5/isr_start_backward.c **** 
 230:Generated_Source\PSoC5/isr_start_backward.c ****     ramVectorTable = (cyisraddress *) *CYINT_VECT_TABLE;
  88              		.loc 1 230 0
  89 0000 014B     		ldr	r3, .L7
  90 0002 1B68     		ldr	r3, [r3]
  91              	.LVL4:
 231:Generated_Source\PSoC5/isr_start_backward.c **** 
 232:Generated_Source\PSoC5/isr_start_backward.c ****     return ramVectorTable[CYINT_IRQ_BASE + (uint32)isr_start_backward__INTC_NUMBER];
 233:Generated_Source\PSoC5/isr_start_backward.c **** }
  92              		.loc 1 233 0
  93 0004 186C     		ldr	r0, [r3, #64]
  94 0006 7047     		bx	lr
  95              	.L8:
  96              		.align	2
  97              	.L7:
  98 0008 08ED00E0 		.word	-536810232
  99              		.cfi_endproc
 100              	.LFE5:
 101              		.size	isr_start_backward_GetVector, .-isr_start_backward_GetVector
 102              		.section	.text.isr_start_backward_SetPriority,"ax",%progbits
 103              		.align	2
 104              		.global	isr_start_backward_SetPriority
 105              		.thumb
 106              		.thumb_func
 107              		.type	isr_start_backward_SetPriority, %function
 108              	isr_start_backward_SetPriority:
 109              	.LFB6:
ARM GAS  C:\Users\JACOB-~1\AppData\Local\Temp\cc2yXWU7.s 			page 7


 234:Generated_Source\PSoC5/isr_start_backward.c **** 
 235:Generated_Source\PSoC5/isr_start_backward.c **** 
 236:Generated_Source\PSoC5/isr_start_backward.c **** /*******************************************************************************
 237:Generated_Source\PSoC5/isr_start_backward.c **** * Function Name: isr_start_backward_SetPriority
 238:Generated_Source\PSoC5/isr_start_backward.c **** ********************************************************************************
 239:Generated_Source\PSoC5/isr_start_backward.c **** *
 240:Generated_Source\PSoC5/isr_start_backward.c **** * Summary:
 241:Generated_Source\PSoC5/isr_start_backward.c **** *   Sets the Priority of the Interrupt. 
 242:Generated_Source\PSoC5/isr_start_backward.c **** *
 243:Generated_Source\PSoC5/isr_start_backward.c **** *   Note calling isr_start_backward_Start or isr_start_backward_StartEx will 
 244:Generated_Source\PSoC5/isr_start_backward.c **** *   override any effect this API would have had. This API should only be called
 245:Generated_Source\PSoC5/isr_start_backward.c **** *   after isr_start_backward_Start or isr_start_backward_StartEx has been called. 
 246:Generated_Source\PSoC5/isr_start_backward.c **** *   To set the initial priority for the component, use the Design-Wide Resources
 247:Generated_Source\PSoC5/isr_start_backward.c **** *   Interrupt Editor.
 248:Generated_Source\PSoC5/isr_start_backward.c **** *
 249:Generated_Source\PSoC5/isr_start_backward.c **** *   Note This API has no effect on Non-maskable interrupt NMI).
 250:Generated_Source\PSoC5/isr_start_backward.c **** *
 251:Generated_Source\PSoC5/isr_start_backward.c **** * Parameters:
 252:Generated_Source\PSoC5/isr_start_backward.c **** *   priority: Priority of the interrupt, 0 being the highest priority
 253:Generated_Source\PSoC5/isr_start_backward.c **** *             PSoC 3 and PSoC 5LP: Priority is from 0 to 7.
 254:Generated_Source\PSoC5/isr_start_backward.c **** *             PSoC 4: Priority is from 0 to 3.
 255:Generated_Source\PSoC5/isr_start_backward.c **** *
 256:Generated_Source\PSoC5/isr_start_backward.c **** * Return:
 257:Generated_Source\PSoC5/isr_start_backward.c **** *   None
 258:Generated_Source\PSoC5/isr_start_backward.c **** *
 259:Generated_Source\PSoC5/isr_start_backward.c **** *******************************************************************************/
 260:Generated_Source\PSoC5/isr_start_backward.c **** void isr_start_backward_SetPriority(uint8 priority)
 261:Generated_Source\PSoC5/isr_start_backward.c **** {
 110              		.loc 1 261 0
 111              		.cfi_startproc
 112              		@ args = 0, pretend = 0, frame = 0
 113              		@ frame_needed = 0, uses_anonymous_args = 0
 114              		@ link register save eliminated.
 115              	.LVL5:
 262:Generated_Source\PSoC5/isr_start_backward.c ****     *isr_start_backward_INTC_PRIOR = priority << 5;
 116              		.loc 1 262 0
 117 0000 4001     		lsls	r0, r0, #5
 118              	.LVL6:
 119 0002 C0B2     		uxtb	r0, r0
 120 0004 014B     		ldr	r3, .L10
 121 0006 1870     		strb	r0, [r3]
 122 0008 7047     		bx	lr
 123              	.L11:
 124 000a 00BF     		.align	2
 125              	.L10:
 126 000c 00E400E0 		.word	-536812544
 127              		.cfi_endproc
 128              	.LFE6:
 129              		.size	isr_start_backward_SetPriority, .-isr_start_backward_SetPriority
 130              		.section	.text.isr_start_backward_GetPriority,"ax",%progbits
 131              		.align	2
 132              		.global	isr_start_backward_GetPriority
 133              		.thumb
 134              		.thumb_func
 135              		.type	isr_start_backward_GetPriority, %function
 136              	isr_start_backward_GetPriority:
 137              	.LFB7:
ARM GAS  C:\Users\JACOB-~1\AppData\Local\Temp\cc2yXWU7.s 			page 8


 263:Generated_Source\PSoC5/isr_start_backward.c **** }
 264:Generated_Source\PSoC5/isr_start_backward.c **** 
 265:Generated_Source\PSoC5/isr_start_backward.c **** 
 266:Generated_Source\PSoC5/isr_start_backward.c **** /*******************************************************************************
 267:Generated_Source\PSoC5/isr_start_backward.c **** * Function Name: isr_start_backward_GetPriority
 268:Generated_Source\PSoC5/isr_start_backward.c **** ********************************************************************************
 269:Generated_Source\PSoC5/isr_start_backward.c **** *
 270:Generated_Source\PSoC5/isr_start_backward.c **** * Summary:
 271:Generated_Source\PSoC5/isr_start_backward.c **** *   Gets the Priority of the Interrupt.
 272:Generated_Source\PSoC5/isr_start_backward.c **** *
 273:Generated_Source\PSoC5/isr_start_backward.c **** * Parameters:
 274:Generated_Source\PSoC5/isr_start_backward.c **** *   None
 275:Generated_Source\PSoC5/isr_start_backward.c **** *
 276:Generated_Source\PSoC5/isr_start_backward.c **** * Return:
 277:Generated_Source\PSoC5/isr_start_backward.c **** *   Priority of the interrupt, 0 being the highest priority
 278:Generated_Source\PSoC5/isr_start_backward.c **** *    PSoC 3 and PSoC 5LP: Priority is from 0 to 7.
 279:Generated_Source\PSoC5/isr_start_backward.c **** *    PSoC 4: Priority is from 0 to 3.
 280:Generated_Source\PSoC5/isr_start_backward.c **** *
 281:Generated_Source\PSoC5/isr_start_backward.c **** *******************************************************************************/
 282:Generated_Source\PSoC5/isr_start_backward.c **** uint8 isr_start_backward_GetPriority(void)
 283:Generated_Source\PSoC5/isr_start_backward.c **** {
 138              		.loc 1 283 0
 139              		.cfi_startproc
 140              		@ args = 0, pretend = 0, frame = 0
 141              		@ frame_needed = 0, uses_anonymous_args = 0
 142              		@ link register save eliminated.
 284:Generated_Source\PSoC5/isr_start_backward.c ****     uint8 priority;
 285:Generated_Source\PSoC5/isr_start_backward.c **** 
 286:Generated_Source\PSoC5/isr_start_backward.c **** 
 287:Generated_Source\PSoC5/isr_start_backward.c ****     priority = *isr_start_backward_INTC_PRIOR >> 5;
 143              		.loc 1 287 0
 144 0000 014B     		ldr	r3, .L13
 145 0002 1878     		ldrb	r0, [r3]	@ zero_extendqisi2
 146              	.LVL7:
 288:Generated_Source\PSoC5/isr_start_backward.c **** 
 289:Generated_Source\PSoC5/isr_start_backward.c ****     return priority;
 290:Generated_Source\PSoC5/isr_start_backward.c **** }
 147              		.loc 1 290 0
 148 0004 4009     		lsrs	r0, r0, #5
 149              	.LVL8:
 150 0006 7047     		bx	lr
 151              	.L14:
 152              		.align	2
 153              	.L13:
 154 0008 00E400E0 		.word	-536812544
 155              		.cfi_endproc
 156              	.LFE7:
 157              		.size	isr_start_backward_GetPriority, .-isr_start_backward_GetPriority
 158              		.section	.text.isr_start_backward_Enable,"ax",%progbits
 159              		.align	2
 160              		.global	isr_start_backward_Enable
 161              		.thumb
 162              		.thumb_func
 163              		.type	isr_start_backward_Enable, %function
 164              	isr_start_backward_Enable:
 165              	.LFB8:
 291:Generated_Source\PSoC5/isr_start_backward.c **** 
ARM GAS  C:\Users\JACOB-~1\AppData\Local\Temp\cc2yXWU7.s 			page 9


 292:Generated_Source\PSoC5/isr_start_backward.c **** 
 293:Generated_Source\PSoC5/isr_start_backward.c **** /*******************************************************************************
 294:Generated_Source\PSoC5/isr_start_backward.c **** * Function Name: isr_start_backward_Enable
 295:Generated_Source\PSoC5/isr_start_backward.c **** ********************************************************************************
 296:Generated_Source\PSoC5/isr_start_backward.c **** *
 297:Generated_Source\PSoC5/isr_start_backward.c **** * Summary:
 298:Generated_Source\PSoC5/isr_start_backward.c **** *   Enables the interrupt to the interrupt controller. Do not call this function
 299:Generated_Source\PSoC5/isr_start_backward.c **** *   unless ISR_Start() has been called or the functionality of the ISR_Start() 
 300:Generated_Source\PSoC5/isr_start_backward.c **** *   function, which sets the vector and the priority, has been called.
 301:Generated_Source\PSoC5/isr_start_backward.c **** *
 302:Generated_Source\PSoC5/isr_start_backward.c **** * Parameters:
 303:Generated_Source\PSoC5/isr_start_backward.c **** *   None
 304:Generated_Source\PSoC5/isr_start_backward.c **** *
 305:Generated_Source\PSoC5/isr_start_backward.c **** * Return:
 306:Generated_Source\PSoC5/isr_start_backward.c **** *   None
 307:Generated_Source\PSoC5/isr_start_backward.c **** *
 308:Generated_Source\PSoC5/isr_start_backward.c **** *******************************************************************************/
 309:Generated_Source\PSoC5/isr_start_backward.c **** void isr_start_backward_Enable(void)
 310:Generated_Source\PSoC5/isr_start_backward.c **** {
 166              		.loc 1 310 0
 167              		.cfi_startproc
 168              		@ args = 0, pretend = 0, frame = 0
 169              		@ frame_needed = 0, uses_anonymous_args = 0
 170              		@ link register save eliminated.
 311:Generated_Source\PSoC5/isr_start_backward.c ****     /* Enable the general interrupt. */
 312:Generated_Source\PSoC5/isr_start_backward.c ****     *isr_start_backward_INTC_SET_EN = isr_start_backward__INTC_MASK;
 171              		.loc 1 312 0
 172 0000 0122     		movs	r2, #1
 173 0002 014B     		ldr	r3, .L16
 174 0004 1A60     		str	r2, [r3]
 175 0006 7047     		bx	lr
 176              	.L17:
 177              		.align	2
 178              	.L16:
 179 0008 00E100E0 		.word	-536813312
 180              		.cfi_endproc
 181              	.LFE8:
 182              		.size	isr_start_backward_Enable, .-isr_start_backward_Enable
 183              		.section	.text.isr_start_backward_GetState,"ax",%progbits
 184              		.align	2
 185              		.global	isr_start_backward_GetState
 186              		.thumb
 187              		.thumb_func
 188              		.type	isr_start_backward_GetState, %function
 189              	isr_start_backward_GetState:
 190              	.LFB9:
 313:Generated_Source\PSoC5/isr_start_backward.c **** }
 314:Generated_Source\PSoC5/isr_start_backward.c **** 
 315:Generated_Source\PSoC5/isr_start_backward.c **** 
 316:Generated_Source\PSoC5/isr_start_backward.c **** /*******************************************************************************
 317:Generated_Source\PSoC5/isr_start_backward.c **** * Function Name: isr_start_backward_GetState
 318:Generated_Source\PSoC5/isr_start_backward.c **** ********************************************************************************
 319:Generated_Source\PSoC5/isr_start_backward.c **** *
 320:Generated_Source\PSoC5/isr_start_backward.c **** * Summary:
 321:Generated_Source\PSoC5/isr_start_backward.c **** *   Gets the state (enabled, disabled) of the Interrupt.
 322:Generated_Source\PSoC5/isr_start_backward.c **** *
 323:Generated_Source\PSoC5/isr_start_backward.c **** * Parameters:
ARM GAS  C:\Users\JACOB-~1\AppData\Local\Temp\cc2yXWU7.s 			page 10


 324:Generated_Source\PSoC5/isr_start_backward.c **** *   None
 325:Generated_Source\PSoC5/isr_start_backward.c **** *
 326:Generated_Source\PSoC5/isr_start_backward.c **** * Return:
 327:Generated_Source\PSoC5/isr_start_backward.c **** *   1 if enabled, 0 if disabled.
 328:Generated_Source\PSoC5/isr_start_backward.c **** *
 329:Generated_Source\PSoC5/isr_start_backward.c **** *******************************************************************************/
 330:Generated_Source\PSoC5/isr_start_backward.c **** uint8 isr_start_backward_GetState(void)
 331:Generated_Source\PSoC5/isr_start_backward.c **** {
 191              		.loc 1 331 0
 192              		.cfi_startproc
 193              		@ args = 0, pretend = 0, frame = 0
 194              		@ frame_needed = 0, uses_anonymous_args = 0
 195              		@ link register save eliminated.
 332:Generated_Source\PSoC5/isr_start_backward.c ****     /* Get the state of the general interrupt. */
 333:Generated_Source\PSoC5/isr_start_backward.c ****     return ((*isr_start_backward_INTC_SET_EN & (uint32)isr_start_backward__INTC_MASK) != 0u) ? 1u:0
 196              		.loc 1 333 0
 197 0000 024B     		ldr	r3, .L19
 198 0002 1868     		ldr	r0, [r3]
 334:Generated_Source\PSoC5/isr_start_backward.c **** }
 199              		.loc 1 334 0
 200 0004 00F00100 		and	r0, r0, #1
 201 0008 7047     		bx	lr
 202              	.L20:
 203 000a 00BF     		.align	2
 204              	.L19:
 205 000c 00E100E0 		.word	-536813312
 206              		.cfi_endproc
 207              	.LFE9:
 208              		.size	isr_start_backward_GetState, .-isr_start_backward_GetState
 209              		.section	.text.isr_start_backward_Disable,"ax",%progbits
 210              		.align	2
 211              		.global	isr_start_backward_Disable
 212              		.thumb
 213              		.thumb_func
 214              		.type	isr_start_backward_Disable, %function
 215              	isr_start_backward_Disable:
 216              	.LFB10:
 335:Generated_Source\PSoC5/isr_start_backward.c **** 
 336:Generated_Source\PSoC5/isr_start_backward.c **** 
 337:Generated_Source\PSoC5/isr_start_backward.c **** /*******************************************************************************
 338:Generated_Source\PSoC5/isr_start_backward.c **** * Function Name: isr_start_backward_Disable
 339:Generated_Source\PSoC5/isr_start_backward.c **** ********************************************************************************
 340:Generated_Source\PSoC5/isr_start_backward.c **** *
 341:Generated_Source\PSoC5/isr_start_backward.c **** * Summary:
 342:Generated_Source\PSoC5/isr_start_backward.c **** *   Disables the Interrupt in the interrupt controller.
 343:Generated_Source\PSoC5/isr_start_backward.c **** *
 344:Generated_Source\PSoC5/isr_start_backward.c **** * Parameters:
 345:Generated_Source\PSoC5/isr_start_backward.c **** *   None
 346:Generated_Source\PSoC5/isr_start_backward.c **** *
 347:Generated_Source\PSoC5/isr_start_backward.c **** * Return:
 348:Generated_Source\PSoC5/isr_start_backward.c **** *   None
 349:Generated_Source\PSoC5/isr_start_backward.c **** *
 350:Generated_Source\PSoC5/isr_start_backward.c **** *******************************************************************************/
 351:Generated_Source\PSoC5/isr_start_backward.c **** void isr_start_backward_Disable(void)
 352:Generated_Source\PSoC5/isr_start_backward.c **** {
 217              		.loc 1 352 0
 218              		.cfi_startproc
ARM GAS  C:\Users\JACOB-~1\AppData\Local\Temp\cc2yXWU7.s 			page 11


 219              		@ args = 0, pretend = 0, frame = 0
 220              		@ frame_needed = 0, uses_anonymous_args = 0
 221              		@ link register save eliminated.
 353:Generated_Source\PSoC5/isr_start_backward.c ****     /* Disable the general interrupt. */
 354:Generated_Source\PSoC5/isr_start_backward.c ****     *isr_start_backward_INTC_CLR_EN = isr_start_backward__INTC_MASK;
 222              		.loc 1 354 0
 223 0000 0122     		movs	r2, #1
 224 0002 014B     		ldr	r3, .L22
 225 0004 1A60     		str	r2, [r3]
 226 0006 7047     		bx	lr
 227              	.L23:
 228              		.align	2
 229              	.L22:
 230 0008 80E100E0 		.word	-536813184
 231              		.cfi_endproc
 232              	.LFE10:
 233              		.size	isr_start_backward_Disable, .-isr_start_backward_Disable
 234              		.section	.text.isr_start_backward_Start,"ax",%progbits
 235              		.align	2
 236              		.global	isr_start_backward_Start
 237              		.thumb
 238              		.thumb_func
 239              		.type	isr_start_backward_Start, %function
 240              	isr_start_backward_Start:
 241              	.LFB0:
  63:Generated_Source\PSoC5/isr_start_backward.c ****     /* For all we know the interrupt is active. */
 242              		.loc 1 63 0
 243              		.cfi_startproc
 244              		@ args = 0, pretend = 0, frame = 0
 245              		@ frame_needed = 0, uses_anonymous_args = 0
 246 0000 08B5     		push	{r3, lr}
 247              		.cfi_def_cfa_offset 8
 248              		.cfi_offset 3, -8
 249              		.cfi_offset 14, -4
  65:Generated_Source\PSoC5/isr_start_backward.c **** 
 250              		.loc 1 65 0
 251 0002 FFF7FEFF 		bl	isr_start_backward_Disable
 252              	.LVL9:
  68:Generated_Source\PSoC5/isr_start_backward.c **** 
 253              		.loc 1 68 0
 254 0006 0448     		ldr	r0, .L26
 255 0008 FFF7FEFF 		bl	isr_start_backward_SetVector
 256              	.LVL10:
  71:Generated_Source\PSoC5/isr_start_backward.c **** 
 257              		.loc 1 71 0
 258 000c 0720     		movs	r0, #7
 259 000e FFF7FEFF 		bl	isr_start_backward_SetPriority
 260              	.LVL11:
  74:Generated_Source\PSoC5/isr_start_backward.c **** }
 261              		.loc 1 74 0
 262 0012 FFF7FEFF 		bl	isr_start_backward_Enable
 263              	.LVL12:
 264 0016 08BD     		pop	{r3, pc}
 265              	.L27:
 266              		.align	2
 267              	.L26:
 268 0018 00000000 		.word	isr_start_backward_Interrupt
ARM GAS  C:\Users\JACOB-~1\AppData\Local\Temp\cc2yXWU7.s 			page 12


 269              		.cfi_endproc
 270              	.LFE0:
 271              		.size	isr_start_backward_Start, .-isr_start_backward_Start
 272              		.section	.text.isr_start_backward_StartEx,"ax",%progbits
 273              		.align	2
 274              		.global	isr_start_backward_StartEx
 275              		.thumb
 276              		.thumb_func
 277              		.type	isr_start_backward_StartEx, %function
 278              	isr_start_backward_StartEx:
 279              	.LFB1:
 106:Generated_Source\PSoC5/isr_start_backward.c ****     /* For all we know the interrupt is active. */
 280              		.loc 1 106 0
 281              		.cfi_startproc
 282              		@ args = 0, pretend = 0, frame = 0
 283              		@ frame_needed = 0, uses_anonymous_args = 0
 284              	.LVL13:
 285 0000 10B5     		push	{r4, lr}
 286              		.cfi_def_cfa_offset 8
 287              		.cfi_offset 4, -8
 288              		.cfi_offset 14, -4
 289 0002 0446     		mov	r4, r0
 108:Generated_Source\PSoC5/isr_start_backward.c **** 
 290              		.loc 1 108 0
 291 0004 FFF7FEFF 		bl	isr_start_backward_Disable
 292              	.LVL14:
 111:Generated_Source\PSoC5/isr_start_backward.c **** 
 293              		.loc 1 111 0
 294 0008 2046     		mov	r0, r4
 295 000a FFF7FEFF 		bl	isr_start_backward_SetVector
 296              	.LVL15:
 114:Generated_Source\PSoC5/isr_start_backward.c **** 
 297              		.loc 1 114 0
 298 000e 0720     		movs	r0, #7
 299 0010 FFF7FEFF 		bl	isr_start_backward_SetPriority
 300              	.LVL16:
 117:Generated_Source\PSoC5/isr_start_backward.c **** }
 301              		.loc 1 117 0
 302 0014 FFF7FEFF 		bl	isr_start_backward_Enable
 303              	.LVL17:
 304 0018 10BD     		pop	{r4, pc}
 305              		.cfi_endproc
 306              	.LFE1:
 307              		.size	isr_start_backward_StartEx, .-isr_start_backward_StartEx
 308 001a 00BF     		.section	.text.isr_start_backward_Stop,"ax",%progbits
 309              		.align	2
 310              		.global	isr_start_backward_Stop
 311              		.thumb
 312              		.thumb_func
 313              		.type	isr_start_backward_Stop, %function
 314              	isr_start_backward_Stop:
 315              	.LFB2:
 136:Generated_Source\PSoC5/isr_start_backward.c ****     /* Disable this interrupt. */
 316              		.loc 1 136 0
 317              		.cfi_startproc
 318              		@ args = 0, pretend = 0, frame = 0
 319              		@ frame_needed = 0, uses_anonymous_args = 0
ARM GAS  C:\Users\JACOB-~1\AppData\Local\Temp\cc2yXWU7.s 			page 13


 320 0000 08B5     		push	{r3, lr}
 321              		.cfi_def_cfa_offset 8
 322              		.cfi_offset 3, -8
 323              		.cfi_offset 14, -4
 138:Generated_Source\PSoC5/isr_start_backward.c **** 
 324              		.loc 1 138 0
 325 0002 FFF7FEFF 		bl	isr_start_backward_Disable
 326              	.LVL18:
 141:Generated_Source\PSoC5/isr_start_backward.c **** }
 327              		.loc 1 141 0
 328 0006 0248     		ldr	r0, .L32
 329 0008 FFF7FEFF 		bl	isr_start_backward_SetVector
 330              	.LVL19:
 331 000c 08BD     		pop	{r3, pc}
 332              	.L33:
 333 000e 00BF     		.align	2
 334              	.L32:
 335 0010 00000000 		.word	IntDefaultHandler
 336              		.cfi_endproc
 337              	.LFE2:
 338              		.size	isr_start_backward_Stop, .-isr_start_backward_Stop
 339              		.section	.text.isr_start_backward_SetPending,"ax",%progbits
 340              		.align	2
 341              		.global	isr_start_backward_SetPending
 342              		.thumb
 343              		.thumb_func
 344              		.type	isr_start_backward_SetPending, %function
 345              	isr_start_backward_SetPending:
 346              	.LFB11:
 355:Generated_Source\PSoC5/isr_start_backward.c **** }
 356:Generated_Source\PSoC5/isr_start_backward.c **** 
 357:Generated_Source\PSoC5/isr_start_backward.c **** 
 358:Generated_Source\PSoC5/isr_start_backward.c **** /*******************************************************************************
 359:Generated_Source\PSoC5/isr_start_backward.c **** * Function Name: isr_start_backward_SetPending
 360:Generated_Source\PSoC5/isr_start_backward.c **** ********************************************************************************
 361:Generated_Source\PSoC5/isr_start_backward.c **** *
 362:Generated_Source\PSoC5/isr_start_backward.c **** * Summary:
 363:Generated_Source\PSoC5/isr_start_backward.c **** *   Causes the Interrupt to enter the pending state, a software method of
 364:Generated_Source\PSoC5/isr_start_backward.c **** *   generating the interrupt.
 365:Generated_Source\PSoC5/isr_start_backward.c **** *
 366:Generated_Source\PSoC5/isr_start_backward.c **** * Parameters:
 367:Generated_Source\PSoC5/isr_start_backward.c **** *   None
 368:Generated_Source\PSoC5/isr_start_backward.c **** *
 369:Generated_Source\PSoC5/isr_start_backward.c **** * Return:
 370:Generated_Source\PSoC5/isr_start_backward.c **** *   None
 371:Generated_Source\PSoC5/isr_start_backward.c **** *
 372:Generated_Source\PSoC5/isr_start_backward.c **** * Side Effects:
 373:Generated_Source\PSoC5/isr_start_backward.c **** *   If interrupts are enabled and the interrupt is set up properly, the ISR is
 374:Generated_Source\PSoC5/isr_start_backward.c **** *   entered (depending on the priority of this interrupt and other pending 
 375:Generated_Source\PSoC5/isr_start_backward.c **** *   interrupts).
 376:Generated_Source\PSoC5/isr_start_backward.c **** *
 377:Generated_Source\PSoC5/isr_start_backward.c **** *******************************************************************************/
 378:Generated_Source\PSoC5/isr_start_backward.c **** void isr_start_backward_SetPending(void)
 379:Generated_Source\PSoC5/isr_start_backward.c **** {
 347              		.loc 1 379 0
 348              		.cfi_startproc
 349              		@ args = 0, pretend = 0, frame = 0
ARM GAS  C:\Users\JACOB-~1\AppData\Local\Temp\cc2yXWU7.s 			page 14


 350              		@ frame_needed = 0, uses_anonymous_args = 0
 351              		@ link register save eliminated.
 380:Generated_Source\PSoC5/isr_start_backward.c ****     *isr_start_backward_INTC_SET_PD = isr_start_backward__INTC_MASK;
 352              		.loc 1 380 0
 353 0000 0122     		movs	r2, #1
 354 0002 014B     		ldr	r3, .L35
 355 0004 1A60     		str	r2, [r3]
 356 0006 7047     		bx	lr
 357              	.L36:
 358              		.align	2
 359              	.L35:
 360 0008 00E200E0 		.word	-536813056
 361              		.cfi_endproc
 362              	.LFE11:
 363              		.size	isr_start_backward_SetPending, .-isr_start_backward_SetPending
 364              		.section	.text.isr_start_backward_ClearPending,"ax",%progbits
 365              		.align	2
 366              		.global	isr_start_backward_ClearPending
 367              		.thumb
 368              		.thumb_func
 369              		.type	isr_start_backward_ClearPending, %function
 370              	isr_start_backward_ClearPending:
 371              	.LFB12:
 381:Generated_Source\PSoC5/isr_start_backward.c **** }
 382:Generated_Source\PSoC5/isr_start_backward.c **** 
 383:Generated_Source\PSoC5/isr_start_backward.c **** 
 384:Generated_Source\PSoC5/isr_start_backward.c **** /*******************************************************************************
 385:Generated_Source\PSoC5/isr_start_backward.c **** * Function Name: isr_start_backward_ClearPending
 386:Generated_Source\PSoC5/isr_start_backward.c **** ********************************************************************************
 387:Generated_Source\PSoC5/isr_start_backward.c **** *
 388:Generated_Source\PSoC5/isr_start_backward.c **** * Summary:
 389:Generated_Source\PSoC5/isr_start_backward.c **** *   Clears a pending interrupt in the interrupt controller.
 390:Generated_Source\PSoC5/isr_start_backward.c **** *
 391:Generated_Source\PSoC5/isr_start_backward.c **** *   Note Some interrupt sources are clear-on-read and require the block 
 392:Generated_Source\PSoC5/isr_start_backward.c **** *   interrupt/status register to be read/cleared with the appropriate block API 
 393:Generated_Source\PSoC5/isr_start_backward.c **** *   (GPIO, UART, and so on). Otherwise the ISR will continue to remain in 
 394:Generated_Source\PSoC5/isr_start_backward.c **** *   pending state even though the interrupt itself is cleared using this API.
 395:Generated_Source\PSoC5/isr_start_backward.c **** *
 396:Generated_Source\PSoC5/isr_start_backward.c **** * Parameters:
 397:Generated_Source\PSoC5/isr_start_backward.c **** *   None
 398:Generated_Source\PSoC5/isr_start_backward.c **** *
 399:Generated_Source\PSoC5/isr_start_backward.c **** * Return:
 400:Generated_Source\PSoC5/isr_start_backward.c **** *   None
 401:Generated_Source\PSoC5/isr_start_backward.c **** *
 402:Generated_Source\PSoC5/isr_start_backward.c **** *******************************************************************************/
 403:Generated_Source\PSoC5/isr_start_backward.c **** void isr_start_backward_ClearPending(void)
 404:Generated_Source\PSoC5/isr_start_backward.c **** {
 372              		.loc 1 404 0
 373              		.cfi_startproc
 374              		@ args = 0, pretend = 0, frame = 0
 375              		@ frame_needed = 0, uses_anonymous_args = 0
 376              		@ link register save eliminated.
 405:Generated_Source\PSoC5/isr_start_backward.c ****     *isr_start_backward_INTC_CLR_PD = isr_start_backward__INTC_MASK;
 377              		.loc 1 405 0
 378 0000 0122     		movs	r2, #1
 379 0002 014B     		ldr	r3, .L38
 380 0004 1A60     		str	r2, [r3]
ARM GAS  C:\Users\JACOB-~1\AppData\Local\Temp\cc2yXWU7.s 			page 15


 381 0006 7047     		bx	lr
 382              	.L39:
 383              		.align	2
 384              	.L38:
 385 0008 80E200E0 		.word	-536812928
 386              		.cfi_endproc
 387              	.LFE12:
 388              		.size	isr_start_backward_ClearPending, .-isr_start_backward_ClearPending
 389              		.text
 390              	.Letext0:
 391              		.file 2 "Generated_Source\\PSoC5/cytypes.h"
 392              		.file 3 "Generated_Source\\PSoC5/CyLib.h"
 393              		.file 4 "./isr_func.h"