ARM GAS  C:\Users\JACOB-~1\AppData\Local\Temp\ccCBaN4U.s 			page 1


   1              		.syntax unified
   2              		.cpu cortex-m3
   3              		.fpu softvfp
   4              		.eabi_attribute 20, 1
   5              		.eabi_attribute 21, 1
   6              		.eabi_attribute 23, 3
   7              		.eabi_attribute 24, 1
   8              		.eabi_attribute 25, 1
   9              		.eabi_attribute 26, 1
  10              		.eabi_attribute 30, 1
  11              		.eabi_attribute 34, 1
  12              		.eabi_attribute 18, 4
  13              		.thumb
  14              		.syntax unified
  15              		.file	"isr_start_forward.c"
  16              		.text
  17              	.Ltext0:
  18              		.cfi_sections	.debug_frame
  19              		.section	.text.isr_start_forward_Interrupt,"ax",%progbits
  20              		.align	2
  21              		.global	isr_start_forward_Interrupt
  22              		.thumb
  23              		.thumb_func
  24              		.type	isr_start_forward_Interrupt, %function
  25              	isr_start_forward_Interrupt:
  26              	.LFB3:
  27              		.file 1 "Generated_Source\\PSoC5\\isr_start_forward.c"
   1:Generated_Source\PSoC5/isr_start_forward.c **** /*******************************************************************************
   2:Generated_Source\PSoC5/isr_start_forward.c **** * File Name: isr_start_forward.c  
   3:Generated_Source\PSoC5/isr_start_forward.c **** * Version 1.70
   4:Generated_Source\PSoC5/isr_start_forward.c **** *
   5:Generated_Source\PSoC5/isr_start_forward.c **** *  Description:
   6:Generated_Source\PSoC5/isr_start_forward.c **** *   API for controlling the state of an interrupt.
   7:Generated_Source\PSoC5/isr_start_forward.c **** *
   8:Generated_Source\PSoC5/isr_start_forward.c **** *
   9:Generated_Source\PSoC5/isr_start_forward.c **** *  Note:
  10:Generated_Source\PSoC5/isr_start_forward.c **** *
  11:Generated_Source\PSoC5/isr_start_forward.c **** ********************************************************************************
  12:Generated_Source\PSoC5/isr_start_forward.c **** * Copyright 2008-2015, Cypress Semiconductor Corporation.  All rights reserved.
  13:Generated_Source\PSoC5/isr_start_forward.c **** * You may use this file only in accordance with the license, terms, conditions, 
  14:Generated_Source\PSoC5/isr_start_forward.c **** * disclaimers, and limitations in the end user license agreement accompanying 
  15:Generated_Source\PSoC5/isr_start_forward.c **** * the software package with which this file was provided.
  16:Generated_Source\PSoC5/isr_start_forward.c **** *******************************************************************************/
  17:Generated_Source\PSoC5/isr_start_forward.c **** 
  18:Generated_Source\PSoC5/isr_start_forward.c **** 
  19:Generated_Source\PSoC5/isr_start_forward.c **** #include <cydevice_trm.h>
  20:Generated_Source\PSoC5/isr_start_forward.c **** #include <CyLib.h>
  21:Generated_Source\PSoC5/isr_start_forward.c **** #include <isr_start_forward.h>
  22:Generated_Source\PSoC5/isr_start_forward.c **** #include "cyapicallbacks.h"
  23:Generated_Source\PSoC5/isr_start_forward.c **** 
  24:Generated_Source\PSoC5/isr_start_forward.c **** #if !defined(isr_start_forward__REMOVED) /* Check for removal by optimization */
  25:Generated_Source\PSoC5/isr_start_forward.c **** 
  26:Generated_Source\PSoC5/isr_start_forward.c **** /*******************************************************************************
  27:Generated_Source\PSoC5/isr_start_forward.c **** *  Place your includes, defines and code here 
  28:Generated_Source\PSoC5/isr_start_forward.c **** ********************************************************************************/
  29:Generated_Source\PSoC5/isr_start_forward.c **** /* `#START isr_start_forward_intc` */
  30:Generated_Source\PSoC5/isr_start_forward.c ****     #include <Pin_DC_Motor.h>
ARM GAS  C:\Users\JACOB-~1\AppData\Local\Temp\ccCBaN4U.s 			page 2


  31:Generated_Source\PSoC5/isr_start_forward.c ****     #include <isr_func.h>
  32:Generated_Source\PSoC5/isr_start_forward.c **** /* `#END` */
  33:Generated_Source\PSoC5/isr_start_forward.c **** 
  34:Generated_Source\PSoC5/isr_start_forward.c **** #ifndef CYINT_IRQ_BASE
  35:Generated_Source\PSoC5/isr_start_forward.c **** #define CYINT_IRQ_BASE      16
  36:Generated_Source\PSoC5/isr_start_forward.c **** #endif /* CYINT_IRQ_BASE */
  37:Generated_Source\PSoC5/isr_start_forward.c **** #ifndef CYINT_VECT_TABLE
  38:Generated_Source\PSoC5/isr_start_forward.c **** #define CYINT_VECT_TABLE    ((cyisraddress **) CYREG_NVIC_VECT_OFFSET)
  39:Generated_Source\PSoC5/isr_start_forward.c **** #endif /* CYINT_VECT_TABLE */
  40:Generated_Source\PSoC5/isr_start_forward.c **** 
  41:Generated_Source\PSoC5/isr_start_forward.c **** /* Declared in startup, used to set unused interrupts to. */
  42:Generated_Source\PSoC5/isr_start_forward.c **** CY_ISR_PROTO(IntDefaultHandler);
  43:Generated_Source\PSoC5/isr_start_forward.c **** 
  44:Generated_Source\PSoC5/isr_start_forward.c **** 
  45:Generated_Source\PSoC5/isr_start_forward.c **** /*******************************************************************************
  46:Generated_Source\PSoC5/isr_start_forward.c **** * Function Name: isr_start_forward_Start
  47:Generated_Source\PSoC5/isr_start_forward.c **** ********************************************************************************
  48:Generated_Source\PSoC5/isr_start_forward.c **** *
  49:Generated_Source\PSoC5/isr_start_forward.c **** * Summary:
  50:Generated_Source\PSoC5/isr_start_forward.c **** *  Set up the interrupt and enable it. This function disables the interrupt, 
  51:Generated_Source\PSoC5/isr_start_forward.c **** *  sets the default interrupt vector, sets the priority from the value in the
  52:Generated_Source\PSoC5/isr_start_forward.c **** *  Design Wide Resources Interrupt Editor, then enables the interrupt to the 
  53:Generated_Source\PSoC5/isr_start_forward.c **** *  interrupt controller.
  54:Generated_Source\PSoC5/isr_start_forward.c **** *
  55:Generated_Source\PSoC5/isr_start_forward.c **** * Parameters:  
  56:Generated_Source\PSoC5/isr_start_forward.c **** *   None
  57:Generated_Source\PSoC5/isr_start_forward.c **** *
  58:Generated_Source\PSoC5/isr_start_forward.c **** * Return:
  59:Generated_Source\PSoC5/isr_start_forward.c **** *   None
  60:Generated_Source\PSoC5/isr_start_forward.c **** *
  61:Generated_Source\PSoC5/isr_start_forward.c **** *******************************************************************************/
  62:Generated_Source\PSoC5/isr_start_forward.c **** void isr_start_forward_Start(void)
  63:Generated_Source\PSoC5/isr_start_forward.c **** {
  64:Generated_Source\PSoC5/isr_start_forward.c ****     /* For all we know the interrupt is active. */
  65:Generated_Source\PSoC5/isr_start_forward.c ****     isr_start_forward_Disable();
  66:Generated_Source\PSoC5/isr_start_forward.c **** 
  67:Generated_Source\PSoC5/isr_start_forward.c ****     /* Set the ISR to point to the isr_start_forward Interrupt. */
  68:Generated_Source\PSoC5/isr_start_forward.c ****     isr_start_forward_SetVector(&isr_start_forward_Interrupt);
  69:Generated_Source\PSoC5/isr_start_forward.c **** 
  70:Generated_Source\PSoC5/isr_start_forward.c ****     /* Set the priority. */
  71:Generated_Source\PSoC5/isr_start_forward.c ****     isr_start_forward_SetPriority((uint8)isr_start_forward_INTC_PRIOR_NUMBER);
  72:Generated_Source\PSoC5/isr_start_forward.c **** 
  73:Generated_Source\PSoC5/isr_start_forward.c ****     /* Enable it. */
  74:Generated_Source\PSoC5/isr_start_forward.c ****     isr_start_forward_Enable();
  75:Generated_Source\PSoC5/isr_start_forward.c **** }
  76:Generated_Source\PSoC5/isr_start_forward.c **** 
  77:Generated_Source\PSoC5/isr_start_forward.c **** 
  78:Generated_Source\PSoC5/isr_start_forward.c **** /*******************************************************************************
  79:Generated_Source\PSoC5/isr_start_forward.c **** * Function Name: isr_start_forward_StartEx
  80:Generated_Source\PSoC5/isr_start_forward.c **** ********************************************************************************
  81:Generated_Source\PSoC5/isr_start_forward.c **** *
  82:Generated_Source\PSoC5/isr_start_forward.c **** * Summary:
  83:Generated_Source\PSoC5/isr_start_forward.c **** *  Sets up the interrupt and enables it. This function disables the interrupt,
  84:Generated_Source\PSoC5/isr_start_forward.c **** *  sets the interrupt vector based on the address passed in, sets the priority 
  85:Generated_Source\PSoC5/isr_start_forward.c **** *  from the value in the Design Wide Resources Interrupt Editor, then enables 
  86:Generated_Source\PSoC5/isr_start_forward.c **** *  the interrupt to the interrupt controller.
  87:Generated_Source\PSoC5/isr_start_forward.c **** *  
ARM GAS  C:\Users\JACOB-~1\AppData\Local\Temp\ccCBaN4U.s 			page 3


  88:Generated_Source\PSoC5/isr_start_forward.c **** *  When defining ISR functions, the CY_ISR and CY_ISR_PROTO macros should be 
  89:Generated_Source\PSoC5/isr_start_forward.c **** *  used to provide consistent definition across compilers:
  90:Generated_Source\PSoC5/isr_start_forward.c **** *  
  91:Generated_Source\PSoC5/isr_start_forward.c **** *  Function definition example:
  92:Generated_Source\PSoC5/isr_start_forward.c **** *   CY_ISR(MyISR)
  93:Generated_Source\PSoC5/isr_start_forward.c **** *   {
  94:Generated_Source\PSoC5/isr_start_forward.c **** *   }
  95:Generated_Source\PSoC5/isr_start_forward.c **** *   Function prototype example:
  96:Generated_Source\PSoC5/isr_start_forward.c **** *   CY_ISR_PROTO(MyISR);
  97:Generated_Source\PSoC5/isr_start_forward.c **** *
  98:Generated_Source\PSoC5/isr_start_forward.c **** * Parameters:  
  99:Generated_Source\PSoC5/isr_start_forward.c **** *   address: Address of the ISR to set in the interrupt vector table.
 100:Generated_Source\PSoC5/isr_start_forward.c **** *
 101:Generated_Source\PSoC5/isr_start_forward.c **** * Return:
 102:Generated_Source\PSoC5/isr_start_forward.c **** *   None
 103:Generated_Source\PSoC5/isr_start_forward.c **** *
 104:Generated_Source\PSoC5/isr_start_forward.c **** *******************************************************************************/
 105:Generated_Source\PSoC5/isr_start_forward.c **** void isr_start_forward_StartEx(cyisraddress address)
 106:Generated_Source\PSoC5/isr_start_forward.c **** {
 107:Generated_Source\PSoC5/isr_start_forward.c ****     /* For all we know the interrupt is active. */
 108:Generated_Source\PSoC5/isr_start_forward.c ****     isr_start_forward_Disable();
 109:Generated_Source\PSoC5/isr_start_forward.c **** 
 110:Generated_Source\PSoC5/isr_start_forward.c ****     /* Set the ISR to point to the isr_start_forward Interrupt. */
 111:Generated_Source\PSoC5/isr_start_forward.c ****     isr_start_forward_SetVector(address);
 112:Generated_Source\PSoC5/isr_start_forward.c **** 
 113:Generated_Source\PSoC5/isr_start_forward.c ****     /* Set the priority. */
 114:Generated_Source\PSoC5/isr_start_forward.c ****     isr_start_forward_SetPriority((uint8)isr_start_forward_INTC_PRIOR_NUMBER);
 115:Generated_Source\PSoC5/isr_start_forward.c **** 
 116:Generated_Source\PSoC5/isr_start_forward.c ****     /* Enable it. */
 117:Generated_Source\PSoC5/isr_start_forward.c ****     isr_start_forward_Enable();
 118:Generated_Source\PSoC5/isr_start_forward.c **** }
 119:Generated_Source\PSoC5/isr_start_forward.c **** 
 120:Generated_Source\PSoC5/isr_start_forward.c **** 
 121:Generated_Source\PSoC5/isr_start_forward.c **** /*******************************************************************************
 122:Generated_Source\PSoC5/isr_start_forward.c **** * Function Name: isr_start_forward_Stop
 123:Generated_Source\PSoC5/isr_start_forward.c **** ********************************************************************************
 124:Generated_Source\PSoC5/isr_start_forward.c **** *
 125:Generated_Source\PSoC5/isr_start_forward.c **** * Summary:
 126:Generated_Source\PSoC5/isr_start_forward.c **** *   Disables and removes the interrupt.
 127:Generated_Source\PSoC5/isr_start_forward.c **** *
 128:Generated_Source\PSoC5/isr_start_forward.c **** * Parameters:  
 129:Generated_Source\PSoC5/isr_start_forward.c **** *   None
 130:Generated_Source\PSoC5/isr_start_forward.c **** *
 131:Generated_Source\PSoC5/isr_start_forward.c **** * Return:
 132:Generated_Source\PSoC5/isr_start_forward.c **** *   None
 133:Generated_Source\PSoC5/isr_start_forward.c **** *
 134:Generated_Source\PSoC5/isr_start_forward.c **** *******************************************************************************/
 135:Generated_Source\PSoC5/isr_start_forward.c **** void isr_start_forward_Stop(void)
 136:Generated_Source\PSoC5/isr_start_forward.c **** {
 137:Generated_Source\PSoC5/isr_start_forward.c ****     /* Disable this interrupt. */
 138:Generated_Source\PSoC5/isr_start_forward.c ****     isr_start_forward_Disable();
 139:Generated_Source\PSoC5/isr_start_forward.c **** 
 140:Generated_Source\PSoC5/isr_start_forward.c ****     /* Set the ISR to point to the passive one. */
 141:Generated_Source\PSoC5/isr_start_forward.c ****     isr_start_forward_SetVector(&IntDefaultHandler);
 142:Generated_Source\PSoC5/isr_start_forward.c **** }
 143:Generated_Source\PSoC5/isr_start_forward.c **** 
 144:Generated_Source\PSoC5/isr_start_forward.c **** 
ARM GAS  C:\Users\JACOB-~1\AppData\Local\Temp\ccCBaN4U.s 			page 4


 145:Generated_Source\PSoC5/isr_start_forward.c **** /*******************************************************************************
 146:Generated_Source\PSoC5/isr_start_forward.c **** * Function Name: isr_start_forward_Interrupt
 147:Generated_Source\PSoC5/isr_start_forward.c **** ********************************************************************************
 148:Generated_Source\PSoC5/isr_start_forward.c **** *
 149:Generated_Source\PSoC5/isr_start_forward.c **** * Summary:
 150:Generated_Source\PSoC5/isr_start_forward.c **** *   The default Interrupt Service Routine for isr_start_forward.
 151:Generated_Source\PSoC5/isr_start_forward.c **** *
 152:Generated_Source\PSoC5/isr_start_forward.c **** *   Add custom code between the coments to keep the next version of this file
 153:Generated_Source\PSoC5/isr_start_forward.c **** *   from over writting your code.
 154:Generated_Source\PSoC5/isr_start_forward.c **** *
 155:Generated_Source\PSoC5/isr_start_forward.c **** * Parameters:  
 156:Generated_Source\PSoC5/isr_start_forward.c **** *
 157:Generated_Source\PSoC5/isr_start_forward.c **** * Return:
 158:Generated_Source\PSoC5/isr_start_forward.c **** *   None
 159:Generated_Source\PSoC5/isr_start_forward.c **** *
 160:Generated_Source\PSoC5/isr_start_forward.c **** *******************************************************************************/
 161:Generated_Source\PSoC5/isr_start_forward.c **** CY_ISR(isr_start_forward_Interrupt)
 162:Generated_Source\PSoC5/isr_start_forward.c **** {
  28              		.loc 1 162 0
  29              		.cfi_startproc
  30              		@ args = 0, pretend = 0, frame = 0
  31              		@ frame_needed = 0, uses_anonymous_args = 0
  32 0000 08B5     		push	{r3, lr}
  33              		.cfi_def_cfa_offset 8
  34              		.cfi_offset 3, -8
  35              		.cfi_offset 14, -4
 163:Generated_Source\PSoC5/isr_start_forward.c ****     #ifdef isr_start_forward_INTERRUPT_INTERRUPT_CALLBACK
 164:Generated_Source\PSoC5/isr_start_forward.c ****         isr_start_forward_Interrupt_InterruptCallback();
 165:Generated_Source\PSoC5/isr_start_forward.c ****     #endif /* isr_start_forward_INTERRUPT_INTERRUPT_CALLBACK */ 
 166:Generated_Source\PSoC5/isr_start_forward.c **** 
 167:Generated_Source\PSoC5/isr_start_forward.c ****     /*  Place your Interrupt code here. */
 168:Generated_Source\PSoC5/isr_start_forward.c ****     /* `#START isr_start_forward_Interrupt` */
 169:Generated_Source\PSoC5/isr_start_forward.c ****     CyDelay(100);
  36              		.loc 1 169 0
  37 0002 6420     		movs	r0, #100
  38 0004 FFF7FEFF 		bl	CyDelay
  39              	.LVL0:
 170:Generated_Source\PSoC5/isr_start_forward.c ****     start_motor_forward();
  40              		.loc 1 170 0
  41 0008 FFF7FEFF 		bl	start_motor_forward
  42              	.LVL1:
  43 000c 08BD     		pop	{r3, pc}
  44              		.cfi_endproc
  45              	.LFE3:
  46              		.size	isr_start_forward_Interrupt, .-isr_start_forward_Interrupt
  47 000e 00BF     		.section	.text.isr_start_forward_SetVector,"ax",%progbits
  48              		.align	2
  49              		.global	isr_start_forward_SetVector
  50              		.thumb
  51              		.thumb_func
  52              		.type	isr_start_forward_SetVector, %function
  53              	isr_start_forward_SetVector:
  54              	.LFB4:
 171:Generated_Source\PSoC5/isr_start_forward.c ****     /* `#END` */
 172:Generated_Source\PSoC5/isr_start_forward.c **** }
 173:Generated_Source\PSoC5/isr_start_forward.c **** 
 174:Generated_Source\PSoC5/isr_start_forward.c **** 
ARM GAS  C:\Users\JACOB-~1\AppData\Local\Temp\ccCBaN4U.s 			page 5


 175:Generated_Source\PSoC5/isr_start_forward.c **** /*******************************************************************************
 176:Generated_Source\PSoC5/isr_start_forward.c **** * Function Name: isr_start_forward_SetVector
 177:Generated_Source\PSoC5/isr_start_forward.c **** ********************************************************************************
 178:Generated_Source\PSoC5/isr_start_forward.c **** *
 179:Generated_Source\PSoC5/isr_start_forward.c **** * Summary:
 180:Generated_Source\PSoC5/isr_start_forward.c **** *   Change the ISR vector for the Interrupt. Note calling isr_start_forward_Start
 181:Generated_Source\PSoC5/isr_start_forward.c **** *   will override any effect this method would have had. To set the vector 
 182:Generated_Source\PSoC5/isr_start_forward.c **** *   before the component has been started use isr_start_forward_StartEx instead.
 183:Generated_Source\PSoC5/isr_start_forward.c **** * 
 184:Generated_Source\PSoC5/isr_start_forward.c **** *   When defining ISR functions, the CY_ISR and CY_ISR_PROTO macros should be 
 185:Generated_Source\PSoC5/isr_start_forward.c **** *   used to provide consistent definition across compilers:
 186:Generated_Source\PSoC5/isr_start_forward.c **** *
 187:Generated_Source\PSoC5/isr_start_forward.c **** *   Function definition example:
 188:Generated_Source\PSoC5/isr_start_forward.c **** *   CY_ISR(MyISR)
 189:Generated_Source\PSoC5/isr_start_forward.c **** *   {
 190:Generated_Source\PSoC5/isr_start_forward.c **** *   }
 191:Generated_Source\PSoC5/isr_start_forward.c **** *
 192:Generated_Source\PSoC5/isr_start_forward.c **** *   Function prototype example:
 193:Generated_Source\PSoC5/isr_start_forward.c **** *     CY_ISR_PROTO(MyISR);
 194:Generated_Source\PSoC5/isr_start_forward.c **** *
 195:Generated_Source\PSoC5/isr_start_forward.c **** * Parameters:
 196:Generated_Source\PSoC5/isr_start_forward.c **** *   address: Address of the ISR to set in the interrupt vector table.
 197:Generated_Source\PSoC5/isr_start_forward.c **** *
 198:Generated_Source\PSoC5/isr_start_forward.c **** * Return:
 199:Generated_Source\PSoC5/isr_start_forward.c **** *   None
 200:Generated_Source\PSoC5/isr_start_forward.c **** *
 201:Generated_Source\PSoC5/isr_start_forward.c **** *******************************************************************************/
 202:Generated_Source\PSoC5/isr_start_forward.c **** void isr_start_forward_SetVector(cyisraddress address)
 203:Generated_Source\PSoC5/isr_start_forward.c **** {
  55              		.loc 1 203 0
  56              		.cfi_startproc
  57              		@ args = 0, pretend = 0, frame = 0
  58              		@ frame_needed = 0, uses_anonymous_args = 0
  59              		@ link register save eliminated.
  60              	.LVL2:
 204:Generated_Source\PSoC5/isr_start_forward.c ****     cyisraddress * ramVectorTable;
 205:Generated_Source\PSoC5/isr_start_forward.c **** 
 206:Generated_Source\PSoC5/isr_start_forward.c ****     ramVectorTable = (cyisraddress *) *CYINT_VECT_TABLE;
  61              		.loc 1 206 0
  62 0000 014B     		ldr	r3, .L4
  63 0002 1B68     		ldr	r3, [r3]
  64              	.LVL3:
 207:Generated_Source\PSoC5/isr_start_forward.c **** 
 208:Generated_Source\PSoC5/isr_start_forward.c ****     ramVectorTable[CYINT_IRQ_BASE + (uint32)isr_start_forward__INTC_NUMBER] = address;
  65              		.loc 1 208 0
  66 0004 5864     		str	r0, [r3, #68]
  67 0006 7047     		bx	lr
  68              	.L5:
  69              		.align	2
  70              	.L4:
  71 0008 08ED00E0 		.word	-536810232
  72              		.cfi_endproc
  73              	.LFE4:
  74              		.size	isr_start_forward_SetVector, .-isr_start_forward_SetVector
  75              		.section	.text.isr_start_forward_GetVector,"ax",%progbits
  76              		.align	2
  77              		.global	isr_start_forward_GetVector
ARM GAS  C:\Users\JACOB-~1\AppData\Local\Temp\ccCBaN4U.s 			page 6


  78              		.thumb
  79              		.thumb_func
  80              		.type	isr_start_forward_GetVector, %function
  81              	isr_start_forward_GetVector:
  82              	.LFB5:
 209:Generated_Source\PSoC5/isr_start_forward.c **** }
 210:Generated_Source\PSoC5/isr_start_forward.c **** 
 211:Generated_Source\PSoC5/isr_start_forward.c **** 
 212:Generated_Source\PSoC5/isr_start_forward.c **** /*******************************************************************************
 213:Generated_Source\PSoC5/isr_start_forward.c **** * Function Name: isr_start_forward_GetVector
 214:Generated_Source\PSoC5/isr_start_forward.c **** ********************************************************************************
 215:Generated_Source\PSoC5/isr_start_forward.c **** *
 216:Generated_Source\PSoC5/isr_start_forward.c **** * Summary:
 217:Generated_Source\PSoC5/isr_start_forward.c **** *   Gets the "address" of the current ISR vector for the Interrupt.
 218:Generated_Source\PSoC5/isr_start_forward.c **** *
 219:Generated_Source\PSoC5/isr_start_forward.c **** * Parameters:
 220:Generated_Source\PSoC5/isr_start_forward.c **** *   None
 221:Generated_Source\PSoC5/isr_start_forward.c **** *
 222:Generated_Source\PSoC5/isr_start_forward.c **** * Return:
 223:Generated_Source\PSoC5/isr_start_forward.c **** *   Address of the ISR in the interrupt vector table.
 224:Generated_Source\PSoC5/isr_start_forward.c **** *
 225:Generated_Source\PSoC5/isr_start_forward.c **** *******************************************************************************/
 226:Generated_Source\PSoC5/isr_start_forward.c **** cyisraddress isr_start_forward_GetVector(void)
 227:Generated_Source\PSoC5/isr_start_forward.c **** {
  83              		.loc 1 227 0
  84              		.cfi_startproc
  85              		@ args = 0, pretend = 0, frame = 0
  86              		@ frame_needed = 0, uses_anonymous_args = 0
  87              		@ link register save eliminated.
 228:Generated_Source\PSoC5/isr_start_forward.c ****     cyisraddress * ramVectorTable;
 229:Generated_Source\PSoC5/isr_start_forward.c **** 
 230:Generated_Source\PSoC5/isr_start_forward.c ****     ramVectorTable = (cyisraddress *) *CYINT_VECT_TABLE;
  88              		.loc 1 230 0
  89 0000 014B     		ldr	r3, .L7
  90 0002 1B68     		ldr	r3, [r3]
  91              	.LVL4:
 231:Generated_Source\PSoC5/isr_start_forward.c **** 
 232:Generated_Source\PSoC5/isr_start_forward.c ****     return ramVectorTable[CYINT_IRQ_BASE + (uint32)isr_start_forward__INTC_NUMBER];
 233:Generated_Source\PSoC5/isr_start_forward.c **** }
  92              		.loc 1 233 0
  93 0004 586C     		ldr	r0, [r3, #68]
  94 0006 7047     		bx	lr
  95              	.L8:
  96              		.align	2
  97              	.L7:
  98 0008 08ED00E0 		.word	-536810232
  99              		.cfi_endproc
 100              	.LFE5:
 101              		.size	isr_start_forward_GetVector, .-isr_start_forward_GetVector
 102              		.section	.text.isr_start_forward_SetPriority,"ax",%progbits
 103              		.align	2
 104              		.global	isr_start_forward_SetPriority
 105              		.thumb
 106              		.thumb_func
 107              		.type	isr_start_forward_SetPriority, %function
 108              	isr_start_forward_SetPriority:
 109              	.LFB6:
ARM GAS  C:\Users\JACOB-~1\AppData\Local\Temp\ccCBaN4U.s 			page 7


 234:Generated_Source\PSoC5/isr_start_forward.c **** 
 235:Generated_Source\PSoC5/isr_start_forward.c **** 
 236:Generated_Source\PSoC5/isr_start_forward.c **** /*******************************************************************************
 237:Generated_Source\PSoC5/isr_start_forward.c **** * Function Name: isr_start_forward_SetPriority
 238:Generated_Source\PSoC5/isr_start_forward.c **** ********************************************************************************
 239:Generated_Source\PSoC5/isr_start_forward.c **** *
 240:Generated_Source\PSoC5/isr_start_forward.c **** * Summary:
 241:Generated_Source\PSoC5/isr_start_forward.c **** *   Sets the Priority of the Interrupt. 
 242:Generated_Source\PSoC5/isr_start_forward.c **** *
 243:Generated_Source\PSoC5/isr_start_forward.c **** *   Note calling isr_start_forward_Start or isr_start_forward_StartEx will 
 244:Generated_Source\PSoC5/isr_start_forward.c **** *   override any effect this API would have had. This API should only be called
 245:Generated_Source\PSoC5/isr_start_forward.c **** *   after isr_start_forward_Start or isr_start_forward_StartEx has been called. 
 246:Generated_Source\PSoC5/isr_start_forward.c **** *   To set the initial priority for the component, use the Design-Wide Resources
 247:Generated_Source\PSoC5/isr_start_forward.c **** *   Interrupt Editor.
 248:Generated_Source\PSoC5/isr_start_forward.c **** *
 249:Generated_Source\PSoC5/isr_start_forward.c **** *   Note This API has no effect on Non-maskable interrupt NMI).
 250:Generated_Source\PSoC5/isr_start_forward.c **** *
 251:Generated_Source\PSoC5/isr_start_forward.c **** * Parameters:
 252:Generated_Source\PSoC5/isr_start_forward.c **** *   priority: Priority of the interrupt, 0 being the highest priority
 253:Generated_Source\PSoC5/isr_start_forward.c **** *             PSoC 3 and PSoC 5LP: Priority is from 0 to 7.
 254:Generated_Source\PSoC5/isr_start_forward.c **** *             PSoC 4: Priority is from 0 to 3.
 255:Generated_Source\PSoC5/isr_start_forward.c **** *
 256:Generated_Source\PSoC5/isr_start_forward.c **** * Return:
 257:Generated_Source\PSoC5/isr_start_forward.c **** *   None
 258:Generated_Source\PSoC5/isr_start_forward.c **** *
 259:Generated_Source\PSoC5/isr_start_forward.c **** *******************************************************************************/
 260:Generated_Source\PSoC5/isr_start_forward.c **** void isr_start_forward_SetPriority(uint8 priority)
 261:Generated_Source\PSoC5/isr_start_forward.c **** {
 110              		.loc 1 261 0
 111              		.cfi_startproc
 112              		@ args = 0, pretend = 0, frame = 0
 113              		@ frame_needed = 0, uses_anonymous_args = 0
 114              		@ link register save eliminated.
 115              	.LVL5:
 262:Generated_Source\PSoC5/isr_start_forward.c ****     *isr_start_forward_INTC_PRIOR = priority << 5;
 116              		.loc 1 262 0
 117 0000 4001     		lsls	r0, r0, #5
 118              	.LVL6:
 119 0002 C0B2     		uxtb	r0, r0
 120 0004 014B     		ldr	r3, .L10
 121 0006 1870     		strb	r0, [r3]
 122 0008 7047     		bx	lr
 123              	.L11:
 124 000a 00BF     		.align	2
 125              	.L10:
 126 000c 01E400E0 		.word	-536812543
 127              		.cfi_endproc
 128              	.LFE6:
 129              		.size	isr_start_forward_SetPriority, .-isr_start_forward_SetPriority
 130              		.section	.text.isr_start_forward_GetPriority,"ax",%progbits
 131              		.align	2
 132              		.global	isr_start_forward_GetPriority
 133              		.thumb
 134              		.thumb_func
 135              		.type	isr_start_forward_GetPriority, %function
 136              	isr_start_forward_GetPriority:
 137              	.LFB7:
ARM GAS  C:\Users\JACOB-~1\AppData\Local\Temp\ccCBaN4U.s 			page 8


 263:Generated_Source\PSoC5/isr_start_forward.c **** }
 264:Generated_Source\PSoC5/isr_start_forward.c **** 
 265:Generated_Source\PSoC5/isr_start_forward.c **** 
 266:Generated_Source\PSoC5/isr_start_forward.c **** /*******************************************************************************
 267:Generated_Source\PSoC5/isr_start_forward.c **** * Function Name: isr_start_forward_GetPriority
 268:Generated_Source\PSoC5/isr_start_forward.c **** ********************************************************************************
 269:Generated_Source\PSoC5/isr_start_forward.c **** *
 270:Generated_Source\PSoC5/isr_start_forward.c **** * Summary:
 271:Generated_Source\PSoC5/isr_start_forward.c **** *   Gets the Priority of the Interrupt.
 272:Generated_Source\PSoC5/isr_start_forward.c **** *
 273:Generated_Source\PSoC5/isr_start_forward.c **** * Parameters:
 274:Generated_Source\PSoC5/isr_start_forward.c **** *   None
 275:Generated_Source\PSoC5/isr_start_forward.c **** *
 276:Generated_Source\PSoC5/isr_start_forward.c **** * Return:
 277:Generated_Source\PSoC5/isr_start_forward.c **** *   Priority of the interrupt, 0 being the highest priority
 278:Generated_Source\PSoC5/isr_start_forward.c **** *    PSoC 3 and PSoC 5LP: Priority is from 0 to 7.
 279:Generated_Source\PSoC5/isr_start_forward.c **** *    PSoC 4: Priority is from 0 to 3.
 280:Generated_Source\PSoC5/isr_start_forward.c **** *
 281:Generated_Source\PSoC5/isr_start_forward.c **** *******************************************************************************/
 282:Generated_Source\PSoC5/isr_start_forward.c **** uint8 isr_start_forward_GetPriority(void)
 283:Generated_Source\PSoC5/isr_start_forward.c **** {
 138              		.loc 1 283 0
 139              		.cfi_startproc
 140              		@ args = 0, pretend = 0, frame = 0
 141              		@ frame_needed = 0, uses_anonymous_args = 0
 142              		@ link register save eliminated.
 284:Generated_Source\PSoC5/isr_start_forward.c ****     uint8 priority;
 285:Generated_Source\PSoC5/isr_start_forward.c **** 
 286:Generated_Source\PSoC5/isr_start_forward.c **** 
 287:Generated_Source\PSoC5/isr_start_forward.c ****     priority = *isr_start_forward_INTC_PRIOR >> 5;
 143              		.loc 1 287 0
 144 0000 014B     		ldr	r3, .L13
 145 0002 1878     		ldrb	r0, [r3]	@ zero_extendqisi2
 146              	.LVL7:
 288:Generated_Source\PSoC5/isr_start_forward.c **** 
 289:Generated_Source\PSoC5/isr_start_forward.c ****     return priority;
 290:Generated_Source\PSoC5/isr_start_forward.c **** }
 147              		.loc 1 290 0
 148 0004 4009     		lsrs	r0, r0, #5
 149              	.LVL8:
 150 0006 7047     		bx	lr
 151              	.L14:
 152              		.align	2
 153              	.L13:
 154 0008 01E400E0 		.word	-536812543
 155              		.cfi_endproc
 156              	.LFE7:
 157              		.size	isr_start_forward_GetPriority, .-isr_start_forward_GetPriority
 158              		.section	.text.isr_start_forward_Enable,"ax",%progbits
 159              		.align	2
 160              		.global	isr_start_forward_Enable
 161              		.thumb
 162              		.thumb_func
 163              		.type	isr_start_forward_Enable, %function
 164              	isr_start_forward_Enable:
 165              	.LFB8:
 291:Generated_Source\PSoC5/isr_start_forward.c **** 
ARM GAS  C:\Users\JACOB-~1\AppData\Local\Temp\ccCBaN4U.s 			page 9


 292:Generated_Source\PSoC5/isr_start_forward.c **** 
 293:Generated_Source\PSoC5/isr_start_forward.c **** /*******************************************************************************
 294:Generated_Source\PSoC5/isr_start_forward.c **** * Function Name: isr_start_forward_Enable
 295:Generated_Source\PSoC5/isr_start_forward.c **** ********************************************************************************
 296:Generated_Source\PSoC5/isr_start_forward.c **** *
 297:Generated_Source\PSoC5/isr_start_forward.c **** * Summary:
 298:Generated_Source\PSoC5/isr_start_forward.c **** *   Enables the interrupt to the interrupt controller. Do not call this function
 299:Generated_Source\PSoC5/isr_start_forward.c **** *   unless ISR_Start() has been called or the functionality of the ISR_Start() 
 300:Generated_Source\PSoC5/isr_start_forward.c **** *   function, which sets the vector and the priority, has been called.
 301:Generated_Source\PSoC5/isr_start_forward.c **** *
 302:Generated_Source\PSoC5/isr_start_forward.c **** * Parameters:
 303:Generated_Source\PSoC5/isr_start_forward.c **** *   None
 304:Generated_Source\PSoC5/isr_start_forward.c **** *
 305:Generated_Source\PSoC5/isr_start_forward.c **** * Return:
 306:Generated_Source\PSoC5/isr_start_forward.c **** *   None
 307:Generated_Source\PSoC5/isr_start_forward.c **** *
 308:Generated_Source\PSoC5/isr_start_forward.c **** *******************************************************************************/
 309:Generated_Source\PSoC5/isr_start_forward.c **** void isr_start_forward_Enable(void)
 310:Generated_Source\PSoC5/isr_start_forward.c **** {
 166              		.loc 1 310 0
 167              		.cfi_startproc
 168              		@ args = 0, pretend = 0, frame = 0
 169              		@ frame_needed = 0, uses_anonymous_args = 0
 170              		@ link register save eliminated.
 311:Generated_Source\PSoC5/isr_start_forward.c ****     /* Enable the general interrupt. */
 312:Generated_Source\PSoC5/isr_start_forward.c ****     *isr_start_forward_INTC_SET_EN = isr_start_forward__INTC_MASK;
 171              		.loc 1 312 0
 172 0000 0222     		movs	r2, #2
 173 0002 014B     		ldr	r3, .L16
 174 0004 1A60     		str	r2, [r3]
 175 0006 7047     		bx	lr
 176              	.L17:
 177              		.align	2
 178              	.L16:
 179 0008 00E100E0 		.word	-536813312
 180              		.cfi_endproc
 181              	.LFE8:
 182              		.size	isr_start_forward_Enable, .-isr_start_forward_Enable
 183              		.section	.text.isr_start_forward_GetState,"ax",%progbits
 184              		.align	2
 185              		.global	isr_start_forward_GetState
 186              		.thumb
 187              		.thumb_func
 188              		.type	isr_start_forward_GetState, %function
 189              	isr_start_forward_GetState:
 190              	.LFB9:
 313:Generated_Source\PSoC5/isr_start_forward.c **** }
 314:Generated_Source\PSoC5/isr_start_forward.c **** 
 315:Generated_Source\PSoC5/isr_start_forward.c **** 
 316:Generated_Source\PSoC5/isr_start_forward.c **** /*******************************************************************************
 317:Generated_Source\PSoC5/isr_start_forward.c **** * Function Name: isr_start_forward_GetState
 318:Generated_Source\PSoC5/isr_start_forward.c **** ********************************************************************************
 319:Generated_Source\PSoC5/isr_start_forward.c **** *
 320:Generated_Source\PSoC5/isr_start_forward.c **** * Summary:
 321:Generated_Source\PSoC5/isr_start_forward.c **** *   Gets the state (enabled, disabled) of the Interrupt.
 322:Generated_Source\PSoC5/isr_start_forward.c **** *
 323:Generated_Source\PSoC5/isr_start_forward.c **** * Parameters:
ARM GAS  C:\Users\JACOB-~1\AppData\Local\Temp\ccCBaN4U.s 			page 10


 324:Generated_Source\PSoC5/isr_start_forward.c **** *   None
 325:Generated_Source\PSoC5/isr_start_forward.c **** *
 326:Generated_Source\PSoC5/isr_start_forward.c **** * Return:
 327:Generated_Source\PSoC5/isr_start_forward.c **** *   1 if enabled, 0 if disabled.
 328:Generated_Source\PSoC5/isr_start_forward.c **** *
 329:Generated_Source\PSoC5/isr_start_forward.c **** *******************************************************************************/
 330:Generated_Source\PSoC5/isr_start_forward.c **** uint8 isr_start_forward_GetState(void)
 331:Generated_Source\PSoC5/isr_start_forward.c **** {
 191              		.loc 1 331 0
 192              		.cfi_startproc
 193              		@ args = 0, pretend = 0, frame = 0
 194              		@ frame_needed = 0, uses_anonymous_args = 0
 195              		@ link register save eliminated.
 332:Generated_Source\PSoC5/isr_start_forward.c ****     /* Get the state of the general interrupt. */
 333:Generated_Source\PSoC5/isr_start_forward.c ****     return ((*isr_start_forward_INTC_SET_EN & (uint32)isr_start_forward__INTC_MASK) != 0u) ? 1u:0u;
 196              		.loc 1 333 0
 197 0000 044B     		ldr	r3, .L21
 198 0002 1B68     		ldr	r3, [r3]
 199 0004 13F0020F 		tst	r3, #2
 200 0008 01D0     		beq	.L20
 201 000a 0120     		movs	r0, #1
 202 000c 7047     		bx	lr
 203              	.L20:
 204 000e 0020     		movs	r0, #0
 334:Generated_Source\PSoC5/isr_start_forward.c **** }
 205              		.loc 1 334 0
 206 0010 7047     		bx	lr
 207              	.L22:
 208 0012 00BF     		.align	2
 209              	.L21:
 210 0014 00E100E0 		.word	-536813312
 211              		.cfi_endproc
 212              	.LFE9:
 213              		.size	isr_start_forward_GetState, .-isr_start_forward_GetState
 214              		.section	.text.isr_start_forward_Disable,"ax",%progbits
 215              		.align	2
 216              		.global	isr_start_forward_Disable
 217              		.thumb
 218              		.thumb_func
 219              		.type	isr_start_forward_Disable, %function
 220              	isr_start_forward_Disable:
 221              	.LFB10:
 335:Generated_Source\PSoC5/isr_start_forward.c **** 
 336:Generated_Source\PSoC5/isr_start_forward.c **** 
 337:Generated_Source\PSoC5/isr_start_forward.c **** /*******************************************************************************
 338:Generated_Source\PSoC5/isr_start_forward.c **** * Function Name: isr_start_forward_Disable
 339:Generated_Source\PSoC5/isr_start_forward.c **** ********************************************************************************
 340:Generated_Source\PSoC5/isr_start_forward.c **** *
 341:Generated_Source\PSoC5/isr_start_forward.c **** * Summary:
 342:Generated_Source\PSoC5/isr_start_forward.c **** *   Disables the Interrupt in the interrupt controller.
 343:Generated_Source\PSoC5/isr_start_forward.c **** *
 344:Generated_Source\PSoC5/isr_start_forward.c **** * Parameters:
 345:Generated_Source\PSoC5/isr_start_forward.c **** *   None
 346:Generated_Source\PSoC5/isr_start_forward.c **** *
 347:Generated_Source\PSoC5/isr_start_forward.c **** * Return:
 348:Generated_Source\PSoC5/isr_start_forward.c **** *   None
 349:Generated_Source\PSoC5/isr_start_forward.c **** *
ARM GAS  C:\Users\JACOB-~1\AppData\Local\Temp\ccCBaN4U.s 			page 11


 350:Generated_Source\PSoC5/isr_start_forward.c **** *******************************************************************************/
 351:Generated_Source\PSoC5/isr_start_forward.c **** void isr_start_forward_Disable(void)
 352:Generated_Source\PSoC5/isr_start_forward.c **** {
 222              		.loc 1 352 0
 223              		.cfi_startproc
 224              		@ args = 0, pretend = 0, frame = 0
 225              		@ frame_needed = 0, uses_anonymous_args = 0
 226              		@ link register save eliminated.
 353:Generated_Source\PSoC5/isr_start_forward.c ****     /* Disable the general interrupt. */
 354:Generated_Source\PSoC5/isr_start_forward.c ****     *isr_start_forward_INTC_CLR_EN = isr_start_forward__INTC_MASK;
 227              		.loc 1 354 0
 228 0000 0222     		movs	r2, #2
 229 0002 014B     		ldr	r3, .L24
 230 0004 1A60     		str	r2, [r3]
 231 0006 7047     		bx	lr
 232              	.L25:
 233              		.align	2
 234              	.L24:
 235 0008 80E100E0 		.word	-536813184
 236              		.cfi_endproc
 237              	.LFE10:
 238              		.size	isr_start_forward_Disable, .-isr_start_forward_Disable
 239              		.section	.text.isr_start_forward_Start,"ax",%progbits
 240              		.align	2
 241              		.global	isr_start_forward_Start
 242              		.thumb
 243              		.thumb_func
 244              		.type	isr_start_forward_Start, %function
 245              	isr_start_forward_Start:
 246              	.LFB0:
  63:Generated_Source\PSoC5/isr_start_forward.c ****     /* For all we know the interrupt is active. */
 247              		.loc 1 63 0
 248              		.cfi_startproc
 249              		@ args = 0, pretend = 0, frame = 0
 250              		@ frame_needed = 0, uses_anonymous_args = 0
 251 0000 08B5     		push	{r3, lr}
 252              		.cfi_def_cfa_offset 8
 253              		.cfi_offset 3, -8
 254              		.cfi_offset 14, -4
  65:Generated_Source\PSoC5/isr_start_forward.c **** 
 255              		.loc 1 65 0
 256 0002 FFF7FEFF 		bl	isr_start_forward_Disable
 257              	.LVL9:
  68:Generated_Source\PSoC5/isr_start_forward.c **** 
 258              		.loc 1 68 0
 259 0006 0448     		ldr	r0, .L28
 260 0008 FFF7FEFF 		bl	isr_start_forward_SetVector
 261              	.LVL10:
  71:Generated_Source\PSoC5/isr_start_forward.c **** 
 262              		.loc 1 71 0
 263 000c 0720     		movs	r0, #7
 264 000e FFF7FEFF 		bl	isr_start_forward_SetPriority
 265              	.LVL11:
  74:Generated_Source\PSoC5/isr_start_forward.c **** }
 266              		.loc 1 74 0
 267 0012 FFF7FEFF 		bl	isr_start_forward_Enable
 268              	.LVL12:
ARM GAS  C:\Users\JACOB-~1\AppData\Local\Temp\ccCBaN4U.s 			page 12


 269 0016 08BD     		pop	{r3, pc}
 270              	.L29:
 271              		.align	2
 272              	.L28:
 273 0018 00000000 		.word	isr_start_forward_Interrupt
 274              		.cfi_endproc
 275              	.LFE0:
 276              		.size	isr_start_forward_Start, .-isr_start_forward_Start
 277              		.section	.text.isr_start_forward_StartEx,"ax",%progbits
 278              		.align	2
 279              		.global	isr_start_forward_StartEx
 280              		.thumb
 281              		.thumb_func
 282              		.type	isr_start_forward_StartEx, %function
 283              	isr_start_forward_StartEx:
 284              	.LFB1:
 106:Generated_Source\PSoC5/isr_start_forward.c ****     /* For all we know the interrupt is active. */
 285              		.loc 1 106 0
 286              		.cfi_startproc
 287              		@ args = 0, pretend = 0, frame = 0
 288              		@ frame_needed = 0, uses_anonymous_args = 0
 289              	.LVL13:
 290 0000 10B5     		push	{r4, lr}
 291              		.cfi_def_cfa_offset 8
 292              		.cfi_offset 4, -8
 293              		.cfi_offset 14, -4
 294 0002 0446     		mov	r4, r0
 108:Generated_Source\PSoC5/isr_start_forward.c **** 
 295              		.loc 1 108 0
 296 0004 FFF7FEFF 		bl	isr_start_forward_Disable
 297              	.LVL14:
 111:Generated_Source\PSoC5/isr_start_forward.c **** 
 298              		.loc 1 111 0
 299 0008 2046     		mov	r0, r4
 300 000a FFF7FEFF 		bl	isr_start_forward_SetVector
 301              	.LVL15:
 114:Generated_Source\PSoC5/isr_start_forward.c **** 
 302              		.loc 1 114 0
 303 000e 0720     		movs	r0, #7
 304 0010 FFF7FEFF 		bl	isr_start_forward_SetPriority
 305              	.LVL16:
 117:Generated_Source\PSoC5/isr_start_forward.c **** }
 306              		.loc 1 117 0
 307 0014 FFF7FEFF 		bl	isr_start_forward_Enable
 308              	.LVL17:
 309 0018 10BD     		pop	{r4, pc}
 310              		.cfi_endproc
 311              	.LFE1:
 312              		.size	isr_start_forward_StartEx, .-isr_start_forward_StartEx
 313 001a 00BF     		.section	.text.isr_start_forward_Stop,"ax",%progbits
 314              		.align	2
 315              		.global	isr_start_forward_Stop
 316              		.thumb
 317              		.thumb_func
 318              		.type	isr_start_forward_Stop, %function
 319              	isr_start_forward_Stop:
 320              	.LFB2:
ARM GAS  C:\Users\JACOB-~1\AppData\Local\Temp\ccCBaN4U.s 			page 13


 136:Generated_Source\PSoC5/isr_start_forward.c ****     /* Disable this interrupt. */
 321              		.loc 1 136 0
 322              		.cfi_startproc
 323              		@ args = 0, pretend = 0, frame = 0
 324              		@ frame_needed = 0, uses_anonymous_args = 0
 325 0000 08B5     		push	{r3, lr}
 326              		.cfi_def_cfa_offset 8
 327              		.cfi_offset 3, -8
 328              		.cfi_offset 14, -4
 138:Generated_Source\PSoC5/isr_start_forward.c **** 
 329              		.loc 1 138 0
 330 0002 FFF7FEFF 		bl	isr_start_forward_Disable
 331              	.LVL18:
 141:Generated_Source\PSoC5/isr_start_forward.c **** }
 332              		.loc 1 141 0
 333 0006 0248     		ldr	r0, .L34
 334 0008 FFF7FEFF 		bl	isr_start_forward_SetVector
 335              	.LVL19:
 336 000c 08BD     		pop	{r3, pc}
 337              	.L35:
 338 000e 00BF     		.align	2
 339              	.L34:
 340 0010 00000000 		.word	IntDefaultHandler
 341              		.cfi_endproc
 342              	.LFE2:
 343              		.size	isr_start_forward_Stop, .-isr_start_forward_Stop
 344              		.section	.text.isr_start_forward_SetPending,"ax",%progbits
 345              		.align	2
 346              		.global	isr_start_forward_SetPending
 347              		.thumb
 348              		.thumb_func
 349              		.type	isr_start_forward_SetPending, %function
 350              	isr_start_forward_SetPending:
 351              	.LFB11:
 355:Generated_Source\PSoC5/isr_start_forward.c **** }
 356:Generated_Source\PSoC5/isr_start_forward.c **** 
 357:Generated_Source\PSoC5/isr_start_forward.c **** 
 358:Generated_Source\PSoC5/isr_start_forward.c **** /*******************************************************************************
 359:Generated_Source\PSoC5/isr_start_forward.c **** * Function Name: isr_start_forward_SetPending
 360:Generated_Source\PSoC5/isr_start_forward.c **** ********************************************************************************
 361:Generated_Source\PSoC5/isr_start_forward.c **** *
 362:Generated_Source\PSoC5/isr_start_forward.c **** * Summary:
 363:Generated_Source\PSoC5/isr_start_forward.c **** *   Causes the Interrupt to enter the pending state, a software method of
 364:Generated_Source\PSoC5/isr_start_forward.c **** *   generating the interrupt.
 365:Generated_Source\PSoC5/isr_start_forward.c **** *
 366:Generated_Source\PSoC5/isr_start_forward.c **** * Parameters:
 367:Generated_Source\PSoC5/isr_start_forward.c **** *   None
 368:Generated_Source\PSoC5/isr_start_forward.c **** *
 369:Generated_Source\PSoC5/isr_start_forward.c **** * Return:
 370:Generated_Source\PSoC5/isr_start_forward.c **** *   None
 371:Generated_Source\PSoC5/isr_start_forward.c **** *
 372:Generated_Source\PSoC5/isr_start_forward.c **** * Side Effects:
 373:Generated_Source\PSoC5/isr_start_forward.c **** *   If interrupts are enabled and the interrupt is set up properly, the ISR is
 374:Generated_Source\PSoC5/isr_start_forward.c **** *   entered (depending on the priority of this interrupt and other pending 
 375:Generated_Source\PSoC5/isr_start_forward.c **** *   interrupts).
 376:Generated_Source\PSoC5/isr_start_forward.c **** *
 377:Generated_Source\PSoC5/isr_start_forward.c **** *******************************************************************************/
ARM GAS  C:\Users\JACOB-~1\AppData\Local\Temp\ccCBaN4U.s 			page 14


 378:Generated_Source\PSoC5/isr_start_forward.c **** void isr_start_forward_SetPending(void)
 379:Generated_Source\PSoC5/isr_start_forward.c **** {
 352              		.loc 1 379 0
 353              		.cfi_startproc
 354              		@ args = 0, pretend = 0, frame = 0
 355              		@ frame_needed = 0, uses_anonymous_args = 0
 356              		@ link register save eliminated.
 380:Generated_Source\PSoC5/isr_start_forward.c ****     *isr_start_forward_INTC_SET_PD = isr_start_forward__INTC_MASK;
 357              		.loc 1 380 0
 358 0000 0222     		movs	r2, #2
 359 0002 014B     		ldr	r3, .L37
 360 0004 1A60     		str	r2, [r3]
 361 0006 7047     		bx	lr
 362              	.L38:
 363              		.align	2
 364              	.L37:
 365 0008 00E200E0 		.word	-536813056
 366              		.cfi_endproc
 367              	.LFE11:
 368              		.size	isr_start_forward_SetPending, .-isr_start_forward_SetPending
 369              		.section	.text.isr_start_forward_ClearPending,"ax",%progbits
 370              		.align	2
 371              		.global	isr_start_forward_ClearPending
 372              		.thumb
 373              		.thumb_func
 374              		.type	isr_start_forward_ClearPending, %function
 375              	isr_start_forward_ClearPending:
 376              	.LFB12:
 381:Generated_Source\PSoC5/isr_start_forward.c **** }
 382:Generated_Source\PSoC5/isr_start_forward.c **** 
 383:Generated_Source\PSoC5/isr_start_forward.c **** 
 384:Generated_Source\PSoC5/isr_start_forward.c **** /*******************************************************************************
 385:Generated_Source\PSoC5/isr_start_forward.c **** * Function Name: isr_start_forward_ClearPending
 386:Generated_Source\PSoC5/isr_start_forward.c **** ********************************************************************************
 387:Generated_Source\PSoC5/isr_start_forward.c **** *
 388:Generated_Source\PSoC5/isr_start_forward.c **** * Summary:
 389:Generated_Source\PSoC5/isr_start_forward.c **** *   Clears a pending interrupt in the interrupt controller.
 390:Generated_Source\PSoC5/isr_start_forward.c **** *
 391:Generated_Source\PSoC5/isr_start_forward.c **** *   Note Some interrupt sources are clear-on-read and require the block 
 392:Generated_Source\PSoC5/isr_start_forward.c **** *   interrupt/status register to be read/cleared with the appropriate block API 
 393:Generated_Source\PSoC5/isr_start_forward.c **** *   (GPIO, UART, and so on). Otherwise the ISR will continue to remain in 
 394:Generated_Source\PSoC5/isr_start_forward.c **** *   pending state even though the interrupt itself is cleared using this API.
 395:Generated_Source\PSoC5/isr_start_forward.c **** *
 396:Generated_Source\PSoC5/isr_start_forward.c **** * Parameters:
 397:Generated_Source\PSoC5/isr_start_forward.c **** *   None
 398:Generated_Source\PSoC5/isr_start_forward.c **** *
 399:Generated_Source\PSoC5/isr_start_forward.c **** * Return:
 400:Generated_Source\PSoC5/isr_start_forward.c **** *   None
 401:Generated_Source\PSoC5/isr_start_forward.c **** *
 402:Generated_Source\PSoC5/isr_start_forward.c **** *******************************************************************************/
 403:Generated_Source\PSoC5/isr_start_forward.c **** void isr_start_forward_ClearPending(void)
 404:Generated_Source\PSoC5/isr_start_forward.c **** {
 377              		.loc 1 404 0
 378              		.cfi_startproc
 379              		@ args = 0, pretend = 0, frame = 0
 380              		@ frame_needed = 0, uses_anonymous_args = 0
 381              		@ link register save eliminated.
ARM GAS  C:\Users\JACOB-~1\AppData\Local\Temp\ccCBaN4U.s 			page 15


 405:Generated_Source\PSoC5/isr_start_forward.c ****     *isr_start_forward_INTC_CLR_PD = isr_start_forward__INTC_MASK;
 382              		.loc 1 405 0
 383 0000 0222     		movs	r2, #2
 384 0002 014B     		ldr	r3, .L40
 385 0004 1A60     		str	r2, [r3]
 386 0006 7047     		bx	lr
 387              	.L41:
 388              		.align	2
 389              	.L40:
 390 0008 80E200E0 		.word	-536812928
 391              		.cfi_endproc
 392              	.LFE12:
 393              		.size	isr_start_forward_ClearPending, .-isr_start_forward_ClearPending
 394              		.text
 395              	.Letext0:
 396              		.file 2 "Generated_Source\\PSoC5/cytypes.h"
 397              		.file 3 "Generated_Source\\PSoC5/CyLib.h"
 398              		.file 4 "./isr_func.h"