ARM GAS  C:\Users\JACOB-~1\AppData\Local\Temp\ccuhl4vS.s 			page 1


   1              		.syntax unified
   2              		.cpu cortex-m3
   3              		.fpu softvfp
   4              		.eabi_attribute 20, 1
   5              		.eabi_attribute 21, 1
   6              		.eabi_attribute 23, 3
   7              		.eabi_attribute 24, 1
   8              		.eabi_attribute 25, 1
   9              		.eabi_attribute 26, 1
  10              		.eabi_attribute 30, 1
  11              		.eabi_attribute 34, 1
  12              		.eabi_attribute 18, 4
  13              		.thumb
  14              		.syntax unified
  15              		.file	"isr_start.c"
  16              		.text
  17              	.Ltext0:
  18              		.cfi_sections	.debug_frame
  19              		.section	.text.isr_start_Interrupt,"ax",%progbits
  20              		.align	2
  21              		.global	isr_start_Interrupt
  22              		.thumb
  23              		.thumb_func
  24              		.type	isr_start_Interrupt, %function
  25              	isr_start_Interrupt:
  26              	.LFB3:
  27              		.file 1 "Generated_Source\\PSoC5\\isr_start.c"
   1:Generated_Source\PSoC5/isr_start.c **** /*******************************************************************************
   2:Generated_Source\PSoC5/isr_start.c **** * File Name: isr_start.c  
   3:Generated_Source\PSoC5/isr_start.c **** * Version 1.70
   4:Generated_Source\PSoC5/isr_start.c **** *
   5:Generated_Source\PSoC5/isr_start.c **** *  Description:
   6:Generated_Source\PSoC5/isr_start.c **** *   API for controlling the state of an interrupt.
   7:Generated_Source\PSoC5/isr_start.c **** *
   8:Generated_Source\PSoC5/isr_start.c **** *
   9:Generated_Source\PSoC5/isr_start.c **** *  Note:
  10:Generated_Source\PSoC5/isr_start.c **** *
  11:Generated_Source\PSoC5/isr_start.c **** ********************************************************************************
  12:Generated_Source\PSoC5/isr_start.c **** * Copyright 2008-2015, Cypress Semiconductor Corporation.  All rights reserved.
  13:Generated_Source\PSoC5/isr_start.c **** * You may use this file only in accordance with the license, terms, conditions, 
  14:Generated_Source\PSoC5/isr_start.c **** * disclaimers, and limitations in the end user license agreement accompanying 
  15:Generated_Source\PSoC5/isr_start.c **** * the software package with which this file was provided.
  16:Generated_Source\PSoC5/isr_start.c **** *******************************************************************************/
  17:Generated_Source\PSoC5/isr_start.c **** 
  18:Generated_Source\PSoC5/isr_start.c **** 
  19:Generated_Source\PSoC5/isr_start.c **** #include <cydevice_trm.h>
  20:Generated_Source\PSoC5/isr_start.c **** #include <CyLib.h>
  21:Generated_Source\PSoC5/isr_start.c **** #include <isr_start.h>
  22:Generated_Source\PSoC5/isr_start.c **** #include "cyapicallbacks.h"
  23:Generated_Source\PSoC5/isr_start.c **** 
  24:Generated_Source\PSoC5/isr_start.c **** #if !defined(isr_start__REMOVED) /* Check for removal by optimization */
  25:Generated_Source\PSoC5/isr_start.c **** 
  26:Generated_Source\PSoC5/isr_start.c **** /*******************************************************************************
  27:Generated_Source\PSoC5/isr_start.c **** *  Place your includes, defines and code here 
  28:Generated_Source\PSoC5/isr_start.c **** ********************************************************************************/
  29:Generated_Source\PSoC5/isr_start.c **** /* `#START isr_start_intc` */
  30:Generated_Source\PSoC5/isr_start.c **** 
ARM GAS  C:\Users\JACOB-~1\AppData\Local\Temp\ccuhl4vS.s 			page 2


  31:Generated_Source\PSoC5/isr_start.c **** /* `#END` */
  32:Generated_Source\PSoC5/isr_start.c **** 
  33:Generated_Source\PSoC5/isr_start.c **** #ifndef CYINT_IRQ_BASE
  34:Generated_Source\PSoC5/isr_start.c **** #define CYINT_IRQ_BASE      16
  35:Generated_Source\PSoC5/isr_start.c **** #endif /* CYINT_IRQ_BASE */
  36:Generated_Source\PSoC5/isr_start.c **** #ifndef CYINT_VECT_TABLE
  37:Generated_Source\PSoC5/isr_start.c **** #define CYINT_VECT_TABLE    ((cyisraddress **) CYREG_NVIC_VECT_OFFSET)
  38:Generated_Source\PSoC5/isr_start.c **** #endif /* CYINT_VECT_TABLE */
  39:Generated_Source\PSoC5/isr_start.c **** 
  40:Generated_Source\PSoC5/isr_start.c **** /* Declared in startup, used to set unused interrupts to. */
  41:Generated_Source\PSoC5/isr_start.c **** CY_ISR_PROTO(IntDefaultHandler);
  42:Generated_Source\PSoC5/isr_start.c **** 
  43:Generated_Source\PSoC5/isr_start.c **** 
  44:Generated_Source\PSoC5/isr_start.c **** /*******************************************************************************
  45:Generated_Source\PSoC5/isr_start.c **** * Function Name: isr_start_Start
  46:Generated_Source\PSoC5/isr_start.c **** ********************************************************************************
  47:Generated_Source\PSoC5/isr_start.c **** *
  48:Generated_Source\PSoC5/isr_start.c **** * Summary:
  49:Generated_Source\PSoC5/isr_start.c **** *  Set up the interrupt and enable it. This function disables the interrupt, 
  50:Generated_Source\PSoC5/isr_start.c **** *  sets the default interrupt vector, sets the priority from the value in the
  51:Generated_Source\PSoC5/isr_start.c **** *  Design Wide Resources Interrupt Editor, then enables the interrupt to the 
  52:Generated_Source\PSoC5/isr_start.c **** *  interrupt controller.
  53:Generated_Source\PSoC5/isr_start.c **** *
  54:Generated_Source\PSoC5/isr_start.c **** * Parameters:  
  55:Generated_Source\PSoC5/isr_start.c **** *   None
  56:Generated_Source\PSoC5/isr_start.c **** *
  57:Generated_Source\PSoC5/isr_start.c **** * Return:
  58:Generated_Source\PSoC5/isr_start.c **** *   None
  59:Generated_Source\PSoC5/isr_start.c **** *
  60:Generated_Source\PSoC5/isr_start.c **** *******************************************************************************/
  61:Generated_Source\PSoC5/isr_start.c **** void isr_start_Start(void)
  62:Generated_Source\PSoC5/isr_start.c **** {
  63:Generated_Source\PSoC5/isr_start.c ****     /* For all we know the interrupt is active. */
  64:Generated_Source\PSoC5/isr_start.c ****     isr_start_Disable();
  65:Generated_Source\PSoC5/isr_start.c **** 
  66:Generated_Source\PSoC5/isr_start.c ****     /* Set the ISR to point to the isr_start Interrupt. */
  67:Generated_Source\PSoC5/isr_start.c ****     isr_start_SetVector(&isr_start_Interrupt);
  68:Generated_Source\PSoC5/isr_start.c **** 
  69:Generated_Source\PSoC5/isr_start.c ****     /* Set the priority. */
  70:Generated_Source\PSoC5/isr_start.c ****     isr_start_SetPriority((uint8)isr_start_INTC_PRIOR_NUMBER);
  71:Generated_Source\PSoC5/isr_start.c **** 
  72:Generated_Source\PSoC5/isr_start.c ****     /* Enable it. */
  73:Generated_Source\PSoC5/isr_start.c ****     isr_start_Enable();
  74:Generated_Source\PSoC5/isr_start.c **** }
  75:Generated_Source\PSoC5/isr_start.c **** 
  76:Generated_Source\PSoC5/isr_start.c **** 
  77:Generated_Source\PSoC5/isr_start.c **** /*******************************************************************************
  78:Generated_Source\PSoC5/isr_start.c **** * Function Name: isr_start_StartEx
  79:Generated_Source\PSoC5/isr_start.c **** ********************************************************************************
  80:Generated_Source\PSoC5/isr_start.c **** *
  81:Generated_Source\PSoC5/isr_start.c **** * Summary:
  82:Generated_Source\PSoC5/isr_start.c **** *  Sets up the interrupt and enables it. This function disables the interrupt,
  83:Generated_Source\PSoC5/isr_start.c **** *  sets the interrupt vector based on the address passed in, sets the priority 
  84:Generated_Source\PSoC5/isr_start.c **** *  from the value in the Design Wide Resources Interrupt Editor, then enables 
  85:Generated_Source\PSoC5/isr_start.c **** *  the interrupt to the interrupt controller.
  86:Generated_Source\PSoC5/isr_start.c **** *  
  87:Generated_Source\PSoC5/isr_start.c **** *  When defining ISR functions, the CY_ISR and CY_ISR_PROTO macros should be 
ARM GAS  C:\Users\JACOB-~1\AppData\Local\Temp\ccuhl4vS.s 			page 3


  88:Generated_Source\PSoC5/isr_start.c **** *  used to provide consistent definition across compilers:
  89:Generated_Source\PSoC5/isr_start.c **** *  
  90:Generated_Source\PSoC5/isr_start.c **** *  Function definition example:
  91:Generated_Source\PSoC5/isr_start.c **** *   CY_ISR(MyISR)
  92:Generated_Source\PSoC5/isr_start.c **** *   {
  93:Generated_Source\PSoC5/isr_start.c **** *   }
  94:Generated_Source\PSoC5/isr_start.c **** *   Function prototype example:
  95:Generated_Source\PSoC5/isr_start.c **** *   CY_ISR_PROTO(MyISR);
  96:Generated_Source\PSoC5/isr_start.c **** *
  97:Generated_Source\PSoC5/isr_start.c **** * Parameters:  
  98:Generated_Source\PSoC5/isr_start.c **** *   address: Address of the ISR to set in the interrupt vector table.
  99:Generated_Source\PSoC5/isr_start.c **** *
 100:Generated_Source\PSoC5/isr_start.c **** * Return:
 101:Generated_Source\PSoC5/isr_start.c **** *   None
 102:Generated_Source\PSoC5/isr_start.c **** *
 103:Generated_Source\PSoC5/isr_start.c **** *******************************************************************************/
 104:Generated_Source\PSoC5/isr_start.c **** void isr_start_StartEx(cyisraddress address)
 105:Generated_Source\PSoC5/isr_start.c **** {
 106:Generated_Source\PSoC5/isr_start.c ****     /* For all we know the interrupt is active. */
 107:Generated_Source\PSoC5/isr_start.c ****     isr_start_Disable();
 108:Generated_Source\PSoC5/isr_start.c **** 
 109:Generated_Source\PSoC5/isr_start.c ****     /* Set the ISR to point to the isr_start Interrupt. */
 110:Generated_Source\PSoC5/isr_start.c ****     isr_start_SetVector(address);
 111:Generated_Source\PSoC5/isr_start.c **** 
 112:Generated_Source\PSoC5/isr_start.c ****     /* Set the priority. */
 113:Generated_Source\PSoC5/isr_start.c ****     isr_start_SetPriority((uint8)isr_start_INTC_PRIOR_NUMBER);
 114:Generated_Source\PSoC5/isr_start.c **** 
 115:Generated_Source\PSoC5/isr_start.c ****     /* Enable it. */
 116:Generated_Source\PSoC5/isr_start.c ****     isr_start_Enable();
 117:Generated_Source\PSoC5/isr_start.c **** }
 118:Generated_Source\PSoC5/isr_start.c **** 
 119:Generated_Source\PSoC5/isr_start.c **** 
 120:Generated_Source\PSoC5/isr_start.c **** /*******************************************************************************
 121:Generated_Source\PSoC5/isr_start.c **** * Function Name: isr_start_Stop
 122:Generated_Source\PSoC5/isr_start.c **** ********************************************************************************
 123:Generated_Source\PSoC5/isr_start.c **** *
 124:Generated_Source\PSoC5/isr_start.c **** * Summary:
 125:Generated_Source\PSoC5/isr_start.c **** *   Disables and removes the interrupt.
 126:Generated_Source\PSoC5/isr_start.c **** *
 127:Generated_Source\PSoC5/isr_start.c **** * Parameters:  
 128:Generated_Source\PSoC5/isr_start.c **** *   None
 129:Generated_Source\PSoC5/isr_start.c **** *
 130:Generated_Source\PSoC5/isr_start.c **** * Return:
 131:Generated_Source\PSoC5/isr_start.c **** *   None
 132:Generated_Source\PSoC5/isr_start.c **** *
 133:Generated_Source\PSoC5/isr_start.c **** *******************************************************************************/
 134:Generated_Source\PSoC5/isr_start.c **** void isr_start_Stop(void)
 135:Generated_Source\PSoC5/isr_start.c **** {
 136:Generated_Source\PSoC5/isr_start.c ****     /* Disable this interrupt. */
 137:Generated_Source\PSoC5/isr_start.c ****     isr_start_Disable();
 138:Generated_Source\PSoC5/isr_start.c **** 
 139:Generated_Source\PSoC5/isr_start.c ****     /* Set the ISR to point to the passive one. */
 140:Generated_Source\PSoC5/isr_start.c ****     isr_start_SetVector(&IntDefaultHandler);
 141:Generated_Source\PSoC5/isr_start.c **** }
 142:Generated_Source\PSoC5/isr_start.c **** 
 143:Generated_Source\PSoC5/isr_start.c **** 
 144:Generated_Source\PSoC5/isr_start.c **** /*******************************************************************************
ARM GAS  C:\Users\JACOB-~1\AppData\Local\Temp\ccuhl4vS.s 			page 4


 145:Generated_Source\PSoC5/isr_start.c **** * Function Name: isr_start_Interrupt
 146:Generated_Source\PSoC5/isr_start.c **** ********************************************************************************
 147:Generated_Source\PSoC5/isr_start.c **** *
 148:Generated_Source\PSoC5/isr_start.c **** * Summary:
 149:Generated_Source\PSoC5/isr_start.c **** *   The default Interrupt Service Routine for isr_start.
 150:Generated_Source\PSoC5/isr_start.c **** *
 151:Generated_Source\PSoC5/isr_start.c **** *   Add custom code between the coments to keep the next version of this file
 152:Generated_Source\PSoC5/isr_start.c **** *   from over writting your code.
 153:Generated_Source\PSoC5/isr_start.c **** *
 154:Generated_Source\PSoC5/isr_start.c **** * Parameters:  
 155:Generated_Source\PSoC5/isr_start.c **** *
 156:Generated_Source\PSoC5/isr_start.c **** * Return:
 157:Generated_Source\PSoC5/isr_start.c **** *   None
 158:Generated_Source\PSoC5/isr_start.c **** *
 159:Generated_Source\PSoC5/isr_start.c **** *******************************************************************************/
 160:Generated_Source\PSoC5/isr_start.c **** CY_ISR(isr_start_Interrupt)
 161:Generated_Source\PSoC5/isr_start.c **** {
  28              		.loc 1 161 0
  29              		.cfi_startproc
  30              		@ args = 0, pretend = 0, frame = 0
  31              		@ frame_needed = 0, uses_anonymous_args = 0
  32              		@ link register save eliminated.
  33 0000 7047     		bx	lr
  34              		.cfi_endproc
  35              	.LFE3:
  36              		.size	isr_start_Interrupt, .-isr_start_Interrupt
  37 0002 00BF     		.section	.text.isr_start_SetVector,"ax",%progbits
  38              		.align	2
  39              		.global	isr_start_SetVector
  40              		.thumb
  41              		.thumb_func
  42              		.type	isr_start_SetVector, %function
  43              	isr_start_SetVector:
  44              	.LFB4:
 162:Generated_Source\PSoC5/isr_start.c ****     #ifdef isr_start_INTERRUPT_INTERRUPT_CALLBACK
 163:Generated_Source\PSoC5/isr_start.c ****         isr_start_Interrupt_InterruptCallback();
 164:Generated_Source\PSoC5/isr_start.c ****     #endif /* isr_start_INTERRUPT_INTERRUPT_CALLBACK */ 
 165:Generated_Source\PSoC5/isr_start.c **** 
 166:Generated_Source\PSoC5/isr_start.c ****     /*  Place your Interrupt code here. */
 167:Generated_Source\PSoC5/isr_start.c ****     /* `#START isr_start_Interrupt` */
 168:Generated_Source\PSoC5/isr_start.c ****     
 169:Generated_Source\PSoC5/isr_start.c ****     /* `#END` */
 170:Generated_Source\PSoC5/isr_start.c **** }
 171:Generated_Source\PSoC5/isr_start.c **** 
 172:Generated_Source\PSoC5/isr_start.c **** 
 173:Generated_Source\PSoC5/isr_start.c **** /*******************************************************************************
 174:Generated_Source\PSoC5/isr_start.c **** * Function Name: isr_start_SetVector
 175:Generated_Source\PSoC5/isr_start.c **** ********************************************************************************
 176:Generated_Source\PSoC5/isr_start.c **** *
 177:Generated_Source\PSoC5/isr_start.c **** * Summary:
 178:Generated_Source\PSoC5/isr_start.c **** *   Change the ISR vector for the Interrupt. Note calling isr_start_Start
 179:Generated_Source\PSoC5/isr_start.c **** *   will override any effect this method would have had. To set the vector 
 180:Generated_Source\PSoC5/isr_start.c **** *   before the component has been started use isr_start_StartEx instead.
 181:Generated_Source\PSoC5/isr_start.c **** * 
 182:Generated_Source\PSoC5/isr_start.c **** *   When defining ISR functions, the CY_ISR and CY_ISR_PROTO macros should be 
 183:Generated_Source\PSoC5/isr_start.c **** *   used to provide consistent definition across compilers:
 184:Generated_Source\PSoC5/isr_start.c **** *
ARM GAS  C:\Users\JACOB-~1\AppData\Local\Temp\ccuhl4vS.s 			page 5


 185:Generated_Source\PSoC5/isr_start.c **** *   Function definition example:
 186:Generated_Source\PSoC5/isr_start.c **** *   CY_ISR(MyISR)
 187:Generated_Source\PSoC5/isr_start.c **** *   {
 188:Generated_Source\PSoC5/isr_start.c **** *   }
 189:Generated_Source\PSoC5/isr_start.c **** *
 190:Generated_Source\PSoC5/isr_start.c **** *   Function prototype example:
 191:Generated_Source\PSoC5/isr_start.c **** *     CY_ISR_PROTO(MyISR);
 192:Generated_Source\PSoC5/isr_start.c **** *
 193:Generated_Source\PSoC5/isr_start.c **** * Parameters:
 194:Generated_Source\PSoC5/isr_start.c **** *   address: Address of the ISR to set in the interrupt vector table.
 195:Generated_Source\PSoC5/isr_start.c **** *
 196:Generated_Source\PSoC5/isr_start.c **** * Return:
 197:Generated_Source\PSoC5/isr_start.c **** *   None
 198:Generated_Source\PSoC5/isr_start.c **** *
 199:Generated_Source\PSoC5/isr_start.c **** *******************************************************************************/
 200:Generated_Source\PSoC5/isr_start.c **** void isr_start_SetVector(cyisraddress address)
 201:Generated_Source\PSoC5/isr_start.c **** {
  45              		.loc 1 201 0
  46              		.cfi_startproc
  47              		@ args = 0, pretend = 0, frame = 0
  48              		@ frame_needed = 0, uses_anonymous_args = 0
  49              		@ link register save eliminated.
  50              	.LVL0:
 202:Generated_Source\PSoC5/isr_start.c ****     cyisraddress * ramVectorTable;
 203:Generated_Source\PSoC5/isr_start.c **** 
 204:Generated_Source\PSoC5/isr_start.c ****     ramVectorTable = (cyisraddress *) *CYINT_VECT_TABLE;
  51              		.loc 1 204 0
  52 0000 014B     		ldr	r3, .L3
  53 0002 1B68     		ldr	r3, [r3]
  54              	.LVL1:
 205:Generated_Source\PSoC5/isr_start.c **** 
 206:Generated_Source\PSoC5/isr_start.c ****     ramVectorTable[CYINT_IRQ_BASE + (uint32)isr_start__INTC_NUMBER] = address;
  55              		.loc 1 206 0
  56 0004 1864     		str	r0, [r3, #64]
  57 0006 7047     		bx	lr
  58              	.L4:
  59              		.align	2
  60              	.L3:
  61 0008 08ED00E0 		.word	-536810232
  62              		.cfi_endproc
  63              	.LFE4:
  64              		.size	isr_start_SetVector, .-isr_start_SetVector
  65              		.section	.text.isr_start_GetVector,"ax",%progbits
  66              		.align	2
  67              		.global	isr_start_GetVector
  68              		.thumb
  69              		.thumb_func
  70              		.type	isr_start_GetVector, %function
  71              	isr_start_GetVector:
  72              	.LFB5:
 207:Generated_Source\PSoC5/isr_start.c **** }
 208:Generated_Source\PSoC5/isr_start.c **** 
 209:Generated_Source\PSoC5/isr_start.c **** 
 210:Generated_Source\PSoC5/isr_start.c **** /*******************************************************************************
 211:Generated_Source\PSoC5/isr_start.c **** * Function Name: isr_start_GetVector
 212:Generated_Source\PSoC5/isr_start.c **** ********************************************************************************
 213:Generated_Source\PSoC5/isr_start.c **** *
ARM GAS  C:\Users\JACOB-~1\AppData\Local\Temp\ccuhl4vS.s 			page 6


 214:Generated_Source\PSoC5/isr_start.c **** * Summary:
 215:Generated_Source\PSoC5/isr_start.c **** *   Gets the "address" of the current ISR vector for the Interrupt.
 216:Generated_Source\PSoC5/isr_start.c **** *
 217:Generated_Source\PSoC5/isr_start.c **** * Parameters:
 218:Generated_Source\PSoC5/isr_start.c **** *   None
 219:Generated_Source\PSoC5/isr_start.c **** *
 220:Generated_Source\PSoC5/isr_start.c **** * Return:
 221:Generated_Source\PSoC5/isr_start.c **** *   Address of the ISR in the interrupt vector table.
 222:Generated_Source\PSoC5/isr_start.c **** *
 223:Generated_Source\PSoC5/isr_start.c **** *******************************************************************************/
 224:Generated_Source\PSoC5/isr_start.c **** cyisraddress isr_start_GetVector(void)
 225:Generated_Source\PSoC5/isr_start.c **** {
  73              		.loc 1 225 0
  74              		.cfi_startproc
  75              		@ args = 0, pretend = 0, frame = 0
  76              		@ frame_needed = 0, uses_anonymous_args = 0
  77              		@ link register save eliminated.
 226:Generated_Source\PSoC5/isr_start.c ****     cyisraddress * ramVectorTable;
 227:Generated_Source\PSoC5/isr_start.c **** 
 228:Generated_Source\PSoC5/isr_start.c ****     ramVectorTable = (cyisraddress *) *CYINT_VECT_TABLE;
  78              		.loc 1 228 0
  79 0000 014B     		ldr	r3, .L6
  80 0002 1B68     		ldr	r3, [r3]
  81              	.LVL2:
 229:Generated_Source\PSoC5/isr_start.c **** 
 230:Generated_Source\PSoC5/isr_start.c ****     return ramVectorTable[CYINT_IRQ_BASE + (uint32)isr_start__INTC_NUMBER];
 231:Generated_Source\PSoC5/isr_start.c **** }
  82              		.loc 1 231 0
  83 0004 186C     		ldr	r0, [r3, #64]
  84 0006 7047     		bx	lr
  85              	.L7:
  86              		.align	2
  87              	.L6:
  88 0008 08ED00E0 		.word	-536810232
  89              		.cfi_endproc
  90              	.LFE5:
  91              		.size	isr_start_GetVector, .-isr_start_GetVector
  92              		.section	.text.isr_start_SetPriority,"ax",%progbits
  93              		.align	2
  94              		.global	isr_start_SetPriority
  95              		.thumb
  96              		.thumb_func
  97              		.type	isr_start_SetPriority, %function
  98              	isr_start_SetPriority:
  99              	.LFB6:
 232:Generated_Source\PSoC5/isr_start.c **** 
 233:Generated_Source\PSoC5/isr_start.c **** 
 234:Generated_Source\PSoC5/isr_start.c **** /*******************************************************************************
 235:Generated_Source\PSoC5/isr_start.c **** * Function Name: isr_start_SetPriority
 236:Generated_Source\PSoC5/isr_start.c **** ********************************************************************************
 237:Generated_Source\PSoC5/isr_start.c **** *
 238:Generated_Source\PSoC5/isr_start.c **** * Summary:
 239:Generated_Source\PSoC5/isr_start.c **** *   Sets the Priority of the Interrupt. 
 240:Generated_Source\PSoC5/isr_start.c **** *
 241:Generated_Source\PSoC5/isr_start.c **** *   Note calling isr_start_Start or isr_start_StartEx will 
 242:Generated_Source\PSoC5/isr_start.c **** *   override any effect this API would have had. This API should only be called
 243:Generated_Source\PSoC5/isr_start.c **** *   after isr_start_Start or isr_start_StartEx has been called. 
ARM GAS  C:\Users\JACOB-~1\AppData\Local\Temp\ccuhl4vS.s 			page 7


 244:Generated_Source\PSoC5/isr_start.c **** *   To set the initial priority for the component, use the Design-Wide Resources
 245:Generated_Source\PSoC5/isr_start.c **** *   Interrupt Editor.
 246:Generated_Source\PSoC5/isr_start.c **** *
 247:Generated_Source\PSoC5/isr_start.c **** *   Note This API has no effect on Non-maskable interrupt NMI).
 248:Generated_Source\PSoC5/isr_start.c **** *
 249:Generated_Source\PSoC5/isr_start.c **** * Parameters:
 250:Generated_Source\PSoC5/isr_start.c **** *   priority: Priority of the interrupt, 0 being the highest priority
 251:Generated_Source\PSoC5/isr_start.c **** *             PSoC 3 and PSoC 5LP: Priority is from 0 to 7.
 252:Generated_Source\PSoC5/isr_start.c **** *             PSoC 4: Priority is from 0 to 3.
 253:Generated_Source\PSoC5/isr_start.c **** *
 254:Generated_Source\PSoC5/isr_start.c **** * Return:
 255:Generated_Source\PSoC5/isr_start.c **** *   None
 256:Generated_Source\PSoC5/isr_start.c **** *
 257:Generated_Source\PSoC5/isr_start.c **** *******************************************************************************/
 258:Generated_Source\PSoC5/isr_start.c **** void isr_start_SetPriority(uint8 priority)
 259:Generated_Source\PSoC5/isr_start.c **** {
 100              		.loc 1 259 0
 101              		.cfi_startproc
 102              		@ args = 0, pretend = 0, frame = 0
 103              		@ frame_needed = 0, uses_anonymous_args = 0
 104              		@ link register save eliminated.
 105              	.LVL3:
 260:Generated_Source\PSoC5/isr_start.c ****     *isr_start_INTC_PRIOR = priority << 5;
 106              		.loc 1 260 0
 107 0000 4001     		lsls	r0, r0, #5
 108              	.LVL4:
 109 0002 C0B2     		uxtb	r0, r0
 110 0004 014B     		ldr	r3, .L9
 111 0006 1870     		strb	r0, [r3]
 112 0008 7047     		bx	lr
 113              	.L10:
 114 000a 00BF     		.align	2
 115              	.L9:
 116 000c 00E400E0 		.word	-536812544
 117              		.cfi_endproc
 118              	.LFE6:
 119              		.size	isr_start_SetPriority, .-isr_start_SetPriority
 120              		.section	.text.isr_start_GetPriority,"ax",%progbits
 121              		.align	2
 122              		.global	isr_start_GetPriority
 123              		.thumb
 124              		.thumb_func
 125              		.type	isr_start_GetPriority, %function
 126              	isr_start_GetPriority:
 127              	.LFB7:
 261:Generated_Source\PSoC5/isr_start.c **** }
 262:Generated_Source\PSoC5/isr_start.c **** 
 263:Generated_Source\PSoC5/isr_start.c **** 
 264:Generated_Source\PSoC5/isr_start.c **** /*******************************************************************************
 265:Generated_Source\PSoC5/isr_start.c **** * Function Name: isr_start_GetPriority
 266:Generated_Source\PSoC5/isr_start.c **** ********************************************************************************
 267:Generated_Source\PSoC5/isr_start.c **** *
 268:Generated_Source\PSoC5/isr_start.c **** * Summary:
 269:Generated_Source\PSoC5/isr_start.c **** *   Gets the Priority of the Interrupt.
 270:Generated_Source\PSoC5/isr_start.c **** *
 271:Generated_Source\PSoC5/isr_start.c **** * Parameters:
 272:Generated_Source\PSoC5/isr_start.c **** *   None
ARM GAS  C:\Users\JACOB-~1\AppData\Local\Temp\ccuhl4vS.s 			page 8


 273:Generated_Source\PSoC5/isr_start.c **** *
 274:Generated_Source\PSoC5/isr_start.c **** * Return:
 275:Generated_Source\PSoC5/isr_start.c **** *   Priority of the interrupt, 0 being the highest priority
 276:Generated_Source\PSoC5/isr_start.c **** *    PSoC 3 and PSoC 5LP: Priority is from 0 to 7.
 277:Generated_Source\PSoC5/isr_start.c **** *    PSoC 4: Priority is from 0 to 3.
 278:Generated_Source\PSoC5/isr_start.c **** *
 279:Generated_Source\PSoC5/isr_start.c **** *******************************************************************************/
 280:Generated_Source\PSoC5/isr_start.c **** uint8 isr_start_GetPriority(void)
 281:Generated_Source\PSoC5/isr_start.c **** {
 128              		.loc 1 281 0
 129              		.cfi_startproc
 130              		@ args = 0, pretend = 0, frame = 0
 131              		@ frame_needed = 0, uses_anonymous_args = 0
 132              		@ link register save eliminated.
 282:Generated_Source\PSoC5/isr_start.c ****     uint8 priority;
 283:Generated_Source\PSoC5/isr_start.c **** 
 284:Generated_Source\PSoC5/isr_start.c **** 
 285:Generated_Source\PSoC5/isr_start.c ****     priority = *isr_start_INTC_PRIOR >> 5;
 133              		.loc 1 285 0
 134 0000 014B     		ldr	r3, .L12
 135 0002 1878     		ldrb	r0, [r3]	@ zero_extendqisi2
 136              	.LVL5:
 286:Generated_Source\PSoC5/isr_start.c **** 
 287:Generated_Source\PSoC5/isr_start.c ****     return priority;
 288:Generated_Source\PSoC5/isr_start.c **** }
 137              		.loc 1 288 0
 138 0004 4009     		lsrs	r0, r0, #5
 139              	.LVL6:
 140 0006 7047     		bx	lr
 141              	.L13:
 142              		.align	2
 143              	.L12:
 144 0008 00E400E0 		.word	-536812544
 145              		.cfi_endproc
 146              	.LFE7:
 147              		.size	isr_start_GetPriority, .-isr_start_GetPriority
 148              		.section	.text.isr_start_Enable,"ax",%progbits
 149              		.align	2
 150              		.global	isr_start_Enable
 151              		.thumb
 152              		.thumb_func
 153              		.type	isr_start_Enable, %function
 154              	isr_start_Enable:
 155              	.LFB8:
 289:Generated_Source\PSoC5/isr_start.c **** 
 290:Generated_Source\PSoC5/isr_start.c **** 
 291:Generated_Source\PSoC5/isr_start.c **** /*******************************************************************************
 292:Generated_Source\PSoC5/isr_start.c **** * Function Name: isr_start_Enable
 293:Generated_Source\PSoC5/isr_start.c **** ********************************************************************************
 294:Generated_Source\PSoC5/isr_start.c **** *
 295:Generated_Source\PSoC5/isr_start.c **** * Summary:
 296:Generated_Source\PSoC5/isr_start.c **** *   Enables the interrupt to the interrupt controller. Do not call this function
 297:Generated_Source\PSoC5/isr_start.c **** *   unless ISR_Start() has been called or the functionality of the ISR_Start() 
 298:Generated_Source\PSoC5/isr_start.c **** *   function, which sets the vector and the priority, has been called.
 299:Generated_Source\PSoC5/isr_start.c **** *
 300:Generated_Source\PSoC5/isr_start.c **** * Parameters:
 301:Generated_Source\PSoC5/isr_start.c **** *   None
ARM GAS  C:\Users\JACOB-~1\AppData\Local\Temp\ccuhl4vS.s 			page 9


 302:Generated_Source\PSoC5/isr_start.c **** *
 303:Generated_Source\PSoC5/isr_start.c **** * Return:
 304:Generated_Source\PSoC5/isr_start.c **** *   None
 305:Generated_Source\PSoC5/isr_start.c **** *
 306:Generated_Source\PSoC5/isr_start.c **** *******************************************************************************/
 307:Generated_Source\PSoC5/isr_start.c **** void isr_start_Enable(void)
 308:Generated_Source\PSoC5/isr_start.c **** {
 156              		.loc 1 308 0
 157              		.cfi_startproc
 158              		@ args = 0, pretend = 0, frame = 0
 159              		@ frame_needed = 0, uses_anonymous_args = 0
 160              		@ link register save eliminated.
 309:Generated_Source\PSoC5/isr_start.c ****     /* Enable the general interrupt. */
 310:Generated_Source\PSoC5/isr_start.c ****     *isr_start_INTC_SET_EN = isr_start__INTC_MASK;
 161              		.loc 1 310 0
 162 0000 0122     		movs	r2, #1
 163 0002 014B     		ldr	r3, .L15
 164 0004 1A60     		str	r2, [r3]
 165 0006 7047     		bx	lr
 166              	.L16:
 167              		.align	2
 168              	.L15:
 169 0008 00E100E0 		.word	-536813312
 170              		.cfi_endproc
 171              	.LFE8:
 172              		.size	isr_start_Enable, .-isr_start_Enable
 173              		.section	.text.isr_start_GetState,"ax",%progbits
 174              		.align	2
 175              		.global	isr_start_GetState
 176              		.thumb
 177              		.thumb_func
 178              		.type	isr_start_GetState, %function
 179              	isr_start_GetState:
 180              	.LFB9:
 311:Generated_Source\PSoC5/isr_start.c **** }
 312:Generated_Source\PSoC5/isr_start.c **** 
 313:Generated_Source\PSoC5/isr_start.c **** 
 314:Generated_Source\PSoC5/isr_start.c **** /*******************************************************************************
 315:Generated_Source\PSoC5/isr_start.c **** * Function Name: isr_start_GetState
 316:Generated_Source\PSoC5/isr_start.c **** ********************************************************************************
 317:Generated_Source\PSoC5/isr_start.c **** *
 318:Generated_Source\PSoC5/isr_start.c **** * Summary:
 319:Generated_Source\PSoC5/isr_start.c **** *   Gets the state (enabled, disabled) of the Interrupt.
 320:Generated_Source\PSoC5/isr_start.c **** *
 321:Generated_Source\PSoC5/isr_start.c **** * Parameters:
 322:Generated_Source\PSoC5/isr_start.c **** *   None
 323:Generated_Source\PSoC5/isr_start.c **** *
 324:Generated_Source\PSoC5/isr_start.c **** * Return:
 325:Generated_Source\PSoC5/isr_start.c **** *   1 if enabled, 0 if disabled.
 326:Generated_Source\PSoC5/isr_start.c **** *
 327:Generated_Source\PSoC5/isr_start.c **** *******************************************************************************/
 328:Generated_Source\PSoC5/isr_start.c **** uint8 isr_start_GetState(void)
 329:Generated_Source\PSoC5/isr_start.c **** {
 181              		.loc 1 329 0
 182              		.cfi_startproc
 183              		@ args = 0, pretend = 0, frame = 0
 184              		@ frame_needed = 0, uses_anonymous_args = 0
ARM GAS  C:\Users\JACOB-~1\AppData\Local\Temp\ccuhl4vS.s 			page 10


 185              		@ link register save eliminated.
 330:Generated_Source\PSoC5/isr_start.c ****     /* Get the state of the general interrupt. */
 331:Generated_Source\PSoC5/isr_start.c ****     return ((*isr_start_INTC_SET_EN & (uint32)isr_start__INTC_MASK) != 0u) ? 1u:0u;
 186              		.loc 1 331 0
 187 0000 024B     		ldr	r3, .L18
 188 0002 1868     		ldr	r0, [r3]
 332:Generated_Source\PSoC5/isr_start.c **** }
 189              		.loc 1 332 0
 190 0004 00F00100 		and	r0, r0, #1
 191 0008 7047     		bx	lr
 192              	.L19:
 193 000a 00BF     		.align	2
 194              	.L18:
 195 000c 00E100E0 		.word	-536813312
 196              		.cfi_endproc
 197              	.LFE9:
 198              		.size	isr_start_GetState, .-isr_start_GetState
 199              		.section	.text.isr_start_Disable,"ax",%progbits
 200              		.align	2
 201              		.global	isr_start_Disable
 202              		.thumb
 203              		.thumb_func
 204              		.type	isr_start_Disable, %function
 205              	isr_start_Disable:
 206              	.LFB10:
 333:Generated_Source\PSoC5/isr_start.c **** 
 334:Generated_Source\PSoC5/isr_start.c **** 
 335:Generated_Source\PSoC5/isr_start.c **** /*******************************************************************************
 336:Generated_Source\PSoC5/isr_start.c **** * Function Name: isr_start_Disable
 337:Generated_Source\PSoC5/isr_start.c **** ********************************************************************************
 338:Generated_Source\PSoC5/isr_start.c **** *
 339:Generated_Source\PSoC5/isr_start.c **** * Summary:
 340:Generated_Source\PSoC5/isr_start.c **** *   Disables the Interrupt in the interrupt controller.
 341:Generated_Source\PSoC5/isr_start.c **** *
 342:Generated_Source\PSoC5/isr_start.c **** * Parameters:
 343:Generated_Source\PSoC5/isr_start.c **** *   None
 344:Generated_Source\PSoC5/isr_start.c **** *
 345:Generated_Source\PSoC5/isr_start.c **** * Return:
 346:Generated_Source\PSoC5/isr_start.c **** *   None
 347:Generated_Source\PSoC5/isr_start.c **** *
 348:Generated_Source\PSoC5/isr_start.c **** *******************************************************************************/
 349:Generated_Source\PSoC5/isr_start.c **** void isr_start_Disable(void)
 350:Generated_Source\PSoC5/isr_start.c **** {
 207              		.loc 1 350 0
 208              		.cfi_startproc
 209              		@ args = 0, pretend = 0, frame = 0
 210              		@ frame_needed = 0, uses_anonymous_args = 0
 211              		@ link register save eliminated.
 351:Generated_Source\PSoC5/isr_start.c ****     /* Disable the general interrupt. */
 352:Generated_Source\PSoC5/isr_start.c ****     *isr_start_INTC_CLR_EN = isr_start__INTC_MASK;
 212              		.loc 1 352 0
 213 0000 0122     		movs	r2, #1
 214 0002 014B     		ldr	r3, .L21
 215 0004 1A60     		str	r2, [r3]
 216 0006 7047     		bx	lr
 217              	.L22:
 218              		.align	2
ARM GAS  C:\Users\JACOB-~1\AppData\Local\Temp\ccuhl4vS.s 			page 11


 219              	.L21:
 220 0008 80E100E0 		.word	-536813184
 221              		.cfi_endproc
 222              	.LFE10:
 223              		.size	isr_start_Disable, .-isr_start_Disable
 224              		.section	.text.isr_start_Start,"ax",%progbits
 225              		.align	2
 226              		.global	isr_start_Start
 227              		.thumb
 228              		.thumb_func
 229              		.type	isr_start_Start, %function
 230              	isr_start_Start:
 231              	.LFB0:
  62:Generated_Source\PSoC5/isr_start.c ****     /* For all we know the interrupt is active. */
 232              		.loc 1 62 0
 233              		.cfi_startproc
 234              		@ args = 0, pretend = 0, frame = 0
 235              		@ frame_needed = 0, uses_anonymous_args = 0
 236 0000 08B5     		push	{r3, lr}
 237              		.cfi_def_cfa_offset 8
 238              		.cfi_offset 3, -8
 239              		.cfi_offset 14, -4
  64:Generated_Source\PSoC5/isr_start.c **** 
 240              		.loc 1 64 0
 241 0002 FFF7FEFF 		bl	isr_start_Disable
 242              	.LVL7:
  67:Generated_Source\PSoC5/isr_start.c **** 
 243              		.loc 1 67 0
 244 0006 0448     		ldr	r0, .L25
 245 0008 FFF7FEFF 		bl	isr_start_SetVector
 246              	.LVL8:
  70:Generated_Source\PSoC5/isr_start.c **** 
 247              		.loc 1 70 0
 248 000c 0720     		movs	r0, #7
 249 000e FFF7FEFF 		bl	isr_start_SetPriority
 250              	.LVL9:
  73:Generated_Source\PSoC5/isr_start.c **** }
 251              		.loc 1 73 0
 252 0012 FFF7FEFF 		bl	isr_start_Enable
 253              	.LVL10:
 254 0016 08BD     		pop	{r3, pc}
 255              	.L26:
 256              		.align	2
 257              	.L25:
 258 0018 00000000 		.word	isr_start_Interrupt
 259              		.cfi_endproc
 260              	.LFE0:
 261              		.size	isr_start_Start, .-isr_start_Start
 262              		.section	.text.isr_start_StartEx,"ax",%progbits
 263              		.align	2
 264              		.global	isr_start_StartEx
 265              		.thumb
 266              		.thumb_func
 267              		.type	isr_start_StartEx, %function
 268              	isr_start_StartEx:
 269              	.LFB1:
 105:Generated_Source\PSoC5/isr_start.c ****     /* For all we know the interrupt is active. */
ARM GAS  C:\Users\JACOB-~1\AppData\Local\Temp\ccuhl4vS.s 			page 12


 270              		.loc 1 105 0
 271              		.cfi_startproc
 272              		@ args = 0, pretend = 0, frame = 0
 273              		@ frame_needed = 0, uses_anonymous_args = 0
 274              	.LVL11:
 275 0000 10B5     		push	{r4, lr}
 276              		.cfi_def_cfa_offset 8
 277              		.cfi_offset 4, -8
 278              		.cfi_offset 14, -4
 279 0002 0446     		mov	r4, r0
 107:Generated_Source\PSoC5/isr_start.c **** 
 280              		.loc 1 107 0
 281 0004 FFF7FEFF 		bl	isr_start_Disable
 282              	.LVL12:
 110:Generated_Source\PSoC5/isr_start.c **** 
 283              		.loc 1 110 0
 284 0008 2046     		mov	r0, r4
 285 000a FFF7FEFF 		bl	isr_start_SetVector
 286              	.LVL13:
 113:Generated_Source\PSoC5/isr_start.c **** 
 287              		.loc 1 113 0
 288 000e 0720     		movs	r0, #7
 289 0010 FFF7FEFF 		bl	isr_start_SetPriority
 290              	.LVL14:
 116:Generated_Source\PSoC5/isr_start.c **** }
 291              		.loc 1 116 0
 292 0014 FFF7FEFF 		bl	isr_start_Enable
 293              	.LVL15:
 294 0018 10BD     		pop	{r4, pc}
 295              		.cfi_endproc
 296              	.LFE1:
 297              		.size	isr_start_StartEx, .-isr_start_StartEx
 298 001a 00BF     		.section	.text.isr_start_Stop,"ax",%progbits
 299              		.align	2
 300              		.global	isr_start_Stop
 301              		.thumb
 302              		.thumb_func
 303              		.type	isr_start_Stop, %function
 304              	isr_start_Stop:
 305              	.LFB2:
 135:Generated_Source\PSoC5/isr_start.c ****     /* Disable this interrupt. */
 306              		.loc 1 135 0
 307              		.cfi_startproc
 308              		@ args = 0, pretend = 0, frame = 0
 309              		@ frame_needed = 0, uses_anonymous_args = 0
 310 0000 08B5     		push	{r3, lr}
 311              		.cfi_def_cfa_offset 8
 312              		.cfi_offset 3, -8
 313              		.cfi_offset 14, -4
 137:Generated_Source\PSoC5/isr_start.c **** 
 314              		.loc 1 137 0
 315 0002 FFF7FEFF 		bl	isr_start_Disable
 316              	.LVL16:
 140:Generated_Source\PSoC5/isr_start.c **** }
 317              		.loc 1 140 0
 318 0006 0248     		ldr	r0, .L31
 319 0008 FFF7FEFF 		bl	isr_start_SetVector
ARM GAS  C:\Users\JACOB-~1\AppData\Local\Temp\ccuhl4vS.s 			page 13


 320              	.LVL17:
 321 000c 08BD     		pop	{r3, pc}
 322              	.L32:
 323 000e 00BF     		.align	2
 324              	.L31:
 325 0010 00000000 		.word	IntDefaultHandler
 326              		.cfi_endproc
 327              	.LFE2:
 328              		.size	isr_start_Stop, .-isr_start_Stop
 329              		.section	.text.isr_start_SetPending,"ax",%progbits
 330              		.align	2
 331              		.global	isr_start_SetPending
 332              		.thumb
 333              		.thumb_func
 334              		.type	isr_start_SetPending, %function
 335              	isr_start_SetPending:
 336              	.LFB11:
 353:Generated_Source\PSoC5/isr_start.c **** }
 354:Generated_Source\PSoC5/isr_start.c **** 
 355:Generated_Source\PSoC5/isr_start.c **** 
 356:Generated_Source\PSoC5/isr_start.c **** /*******************************************************************************
 357:Generated_Source\PSoC5/isr_start.c **** * Function Name: isr_start_SetPending
 358:Generated_Source\PSoC5/isr_start.c **** ********************************************************************************
 359:Generated_Source\PSoC5/isr_start.c **** *
 360:Generated_Source\PSoC5/isr_start.c **** * Summary:
 361:Generated_Source\PSoC5/isr_start.c **** *   Causes the Interrupt to enter the pending state, a software method of
 362:Generated_Source\PSoC5/isr_start.c **** *   generating the interrupt.
 363:Generated_Source\PSoC5/isr_start.c **** *
 364:Generated_Source\PSoC5/isr_start.c **** * Parameters:
 365:Generated_Source\PSoC5/isr_start.c **** *   None
 366:Generated_Source\PSoC5/isr_start.c **** *
 367:Generated_Source\PSoC5/isr_start.c **** * Return:
 368:Generated_Source\PSoC5/isr_start.c **** *   None
 369:Generated_Source\PSoC5/isr_start.c **** *
 370:Generated_Source\PSoC5/isr_start.c **** * Side Effects:
 371:Generated_Source\PSoC5/isr_start.c **** *   If interrupts are enabled and the interrupt is set up properly, the ISR is
 372:Generated_Source\PSoC5/isr_start.c **** *   entered (depending on the priority of this interrupt and other pending 
 373:Generated_Source\PSoC5/isr_start.c **** *   interrupts).
 374:Generated_Source\PSoC5/isr_start.c **** *
 375:Generated_Source\PSoC5/isr_start.c **** *******************************************************************************/
 376:Generated_Source\PSoC5/isr_start.c **** void isr_start_SetPending(void)
 377:Generated_Source\PSoC5/isr_start.c **** {
 337              		.loc 1 377 0
 338              		.cfi_startproc
 339              		@ args = 0, pretend = 0, frame = 0
 340              		@ frame_needed = 0, uses_anonymous_args = 0
 341              		@ link register save eliminated.
 378:Generated_Source\PSoC5/isr_start.c ****     *isr_start_INTC_SET_PD = isr_start__INTC_MASK;
 342              		.loc 1 378 0
 343 0000 0122     		movs	r2, #1
 344 0002 014B     		ldr	r3, .L34
 345 0004 1A60     		str	r2, [r3]
 346 0006 7047     		bx	lr
 347              	.L35:
 348              		.align	2
 349              	.L34:
 350 0008 00E200E0 		.word	-536813056
ARM GAS  C:\Users\JACOB-~1\AppData\Local\Temp\ccuhl4vS.s 			page 14


 351              		.cfi_endproc
 352              	.LFE11:
 353              		.size	isr_start_SetPending, .-isr_start_SetPending
 354              		.section	.text.isr_start_ClearPending,"ax",%progbits
 355              		.align	2
 356              		.global	isr_start_ClearPending
 357              		.thumb
 358              		.thumb_func
 359              		.type	isr_start_ClearPending, %function
 360              	isr_start_ClearPending:
 361              	.LFB12:
 379:Generated_Source\PSoC5/isr_start.c **** }
 380:Generated_Source\PSoC5/isr_start.c **** 
 381:Generated_Source\PSoC5/isr_start.c **** 
 382:Generated_Source\PSoC5/isr_start.c **** /*******************************************************************************
 383:Generated_Source\PSoC5/isr_start.c **** * Function Name: isr_start_ClearPending
 384:Generated_Source\PSoC5/isr_start.c **** ********************************************************************************
 385:Generated_Source\PSoC5/isr_start.c **** *
 386:Generated_Source\PSoC5/isr_start.c **** * Summary:
 387:Generated_Source\PSoC5/isr_start.c **** *   Clears a pending interrupt in the interrupt controller.
 388:Generated_Source\PSoC5/isr_start.c **** *
 389:Generated_Source\PSoC5/isr_start.c **** *   Note Some interrupt sources are clear-on-read and require the block 
 390:Generated_Source\PSoC5/isr_start.c **** *   interrupt/status register to be read/cleared with the appropriate block API 
 391:Generated_Source\PSoC5/isr_start.c **** *   (GPIO, UART, and so on). Otherwise the ISR will continue to remain in 
 392:Generated_Source\PSoC5/isr_start.c **** *   pending state even though the interrupt itself is cleared using this API.
 393:Generated_Source\PSoC5/isr_start.c **** *
 394:Generated_Source\PSoC5/isr_start.c **** * Parameters:
 395:Generated_Source\PSoC5/isr_start.c **** *   None
 396:Generated_Source\PSoC5/isr_start.c **** *
 397:Generated_Source\PSoC5/isr_start.c **** * Return:
 398:Generated_Source\PSoC5/isr_start.c **** *   None
 399:Generated_Source\PSoC5/isr_start.c **** *
 400:Generated_Source\PSoC5/isr_start.c **** *******************************************************************************/
 401:Generated_Source\PSoC5/isr_start.c **** void isr_start_ClearPending(void)
 402:Generated_Source\PSoC5/isr_start.c **** {
 362              		.loc 1 402 0
 363              		.cfi_startproc
 364              		@ args = 0, pretend = 0, frame = 0
 365              		@ frame_needed = 0, uses_anonymous_args = 0
 366              		@ link register save eliminated.
 403:Generated_Source\PSoC5/isr_start.c ****     *isr_start_INTC_CLR_PD = isr_start__INTC_MASK;
 367              		.loc 1 403 0
 368 0000 0122     		movs	r2, #1
 369 0002 014B     		ldr	r3, .L37
 370 0004 1A60     		str	r2, [r3]
 371 0006 7047     		bx	lr
 372              	.L38:
 373              		.align	2
 374              	.L37:
 375 0008 80E200E0 		.word	-536812928
 376              		.cfi_endproc
 377              	.LFE12:
 378              		.size	isr_start_ClearPending, .-isr_start_ClearPending
 379              		.section	.text.increment_stepper_forward,"ax",%progbits
 380              		.align	2
 381              		.global	increment_stepper_forward
 382              		.thumb
ARM GAS  C:\Users\JACOB-~1\AppData\Local\Temp\ccuhl4vS.s 			page 15


 383              		.thumb_func
 384              		.type	increment_stepper_forward, %function
 385              	increment_stepper_forward:
 386              	.LFB13:
 404:Generated_Source\PSoC5/isr_start.c **** }
 405:Generated_Source\PSoC5/isr_start.c **** 
 406:Generated_Source\PSoC5/isr_start.c **** /*******************************************************************************
 407:Generated_Source\PSoC5/isr_start.c **** * Function Name: increment_stepper_forward
 408:Generated_Source\PSoC5/isr_start.c **** ********************************************************************************
 409:Generated_Source\PSoC5/isr_start.c **** *
 410:Generated_Source\PSoC5/isr_start.c **** * Summary:
 411:Generated_Source\PSoC5/isr_start.c **** *   Moves the stepper motor one increment forward
 412:Generated_Source\PSoC5/isr_start.c **** *
 413:Generated_Source\PSoC5/isr_start.c **** * 
 414:Generated_Source\PSoC5/isr_start.c **** *
 415:Generated_Source\PSoC5/isr_start.c **** * Parameters:
 416:Generated_Source\PSoC5/isr_start.c **** *   None
 417:Generated_Source\PSoC5/isr_start.c **** *
 418:Generated_Source\PSoC5/isr_start.c **** * Return:
 419:Generated_Source\PSoC5/isr_start.c **** *   None
 420:Generated_Source\PSoC5/isr_start.c **** *
 421:Generated_Source\PSoC5/isr_start.c **** *******************************************************************************/
 422:Generated_Source\PSoC5/isr_start.c **** void increment_stepper_forward(uint8_t phase_index)
 423:Generated_Source\PSoC5/isr_start.c **** {
 387              		.loc 1 423 0
 388              		.cfi_startproc
 389              		@ args = 0, pretend = 0, frame = 0
 390              		@ frame_needed = 0, uses_anonymous_args = 0
 391              		@ link register save eliminated.
 392              	.LVL18:
 393 0000 7047     		bx	lr
 394              		.cfi_endproc
 395              	.LFE13:
 396              		.size	increment_stepper_forward, .-increment_stepper_forward
 397 0002 00BF     		.text
 398              	.Letext0:
 399              		.file 2 "c:\\program files (x86)\\cypress\\psoc creator\\4.3\\psoc creator\\import\\gnu\\arm\\5.4.
 400              		.file 3 "c:\\program files (x86)\\cypress\\psoc creator\\4.3\\psoc creator\\import\\gnu\\arm\\5.4.
 401              		.file 4 "Generated_Source\\PSoC5/cytypes.h"